
./Debug/oled2:     file format elf32-littlearm


Disassembly of section .text:

00000000 <_sfixed>:
       0:	20000ef8 	.word	0x20000ef8
       4:	000037d9 	.word	0x000037d9
       8:	000038d1 	.word	0x000038d1
       c:	000038d1 	.word	0x000038d1
	...
      2c:	000038d1 	.word	0x000038d1
	...
      38:	000038d1 	.word	0x000038d1
      3c:	000038d1 	.word	0x000038d1
      40:	000038d1 	.word	0x000038d1
      44:	000038d1 	.word	0x000038d1
      48:	000038d1 	.word	0x000038d1
      4c:	000038d1 	.word	0x000038d1
      50:	000038d1 	.word	0x000038d1
      54:	000038d1 	.word	0x000038d1
      58:	000038d1 	.word	0x000038d1
      5c:	000038d1 	.word	0x000038d1
      60:	000038d1 	.word	0x000038d1
      64:	000038d1 	.word	0x000038d1
      68:	000038d1 	.word	0x000038d1
      6c:	000038d1 	.word	0x000038d1
      70:	000038d1 	.word	0x000038d1
      74:	000038d1 	.word	0x000038d1
      78:	000038d1 	.word	0x000038d1
      7c:	000038d1 	.word	0x000038d1
      80:	000038d1 	.word	0x000038d1
      84:	000038d1 	.word	0x000038d1
      88:	000038d1 	.word	0x000038d1
      8c:	000038d1 	.word	0x000038d1
      90:	000038d1 	.word	0x000038d1
      94:	000038d1 	.word	0x000038d1
      98:	000038d1 	.word	0x000038d1
      9c:	000038d1 	.word	0x000038d1
      a0:	000038d1 	.word	0x000038d1
      a4:	000038d1 	.word	0x000038d1
      a8:	000038d1 	.word	0x000038d1
      ac:	000038d1 	.word	0x000038d1
      b0:	00000000 	.word	0x00000000

000000b4 <__do_global_dtors_aux>:
      b4:	b510      	push	{r4, lr}
      b6:	4c06      	ldr	r4, [pc, #24]	; (d0 <__do_global_dtors_aux+0x1c>)
      b8:	7823      	ldrb	r3, [r4, #0]
      ba:	2b00      	cmp	r3, #0
      bc:	d107      	bne.n	ce <__do_global_dtors_aux+0x1a>
      be:	4b05      	ldr	r3, [pc, #20]	; (d4 <__do_global_dtors_aux+0x20>)
      c0:	2b00      	cmp	r3, #0
      c2:	d002      	beq.n	ca <__do_global_dtors_aux+0x16>
      c4:	4804      	ldr	r0, [pc, #16]	; (d8 <__do_global_dtors_aux+0x24>)
      c6:	e000      	b.n	ca <__do_global_dtors_aux+0x16>
      c8:	bf00      	nop
      ca:	2301      	movs	r3, #1
      cc:	7023      	strb	r3, [r4, #0]
      ce:	bd10      	pop	{r4, pc}
      d0:	20000020 	.word	0x20000020
      d4:	00000000 	.word	0x00000000
      d8:	000062dc 	.word	0x000062dc

000000dc <frame_dummy>:
      dc:	4b08      	ldr	r3, [pc, #32]	; (100 <frame_dummy+0x24>)
      de:	b510      	push	{r4, lr}
      e0:	2b00      	cmp	r3, #0
      e2:	d003      	beq.n	ec <frame_dummy+0x10>
      e4:	4907      	ldr	r1, [pc, #28]	; (104 <frame_dummy+0x28>)
      e6:	4808      	ldr	r0, [pc, #32]	; (108 <frame_dummy+0x2c>)
      e8:	e000      	b.n	ec <frame_dummy+0x10>
      ea:	bf00      	nop
      ec:	4807      	ldr	r0, [pc, #28]	; (10c <frame_dummy+0x30>)
      ee:	6803      	ldr	r3, [r0, #0]
      f0:	2b00      	cmp	r3, #0
      f2:	d100      	bne.n	f6 <frame_dummy+0x1a>
      f4:	bd10      	pop	{r4, pc}
      f6:	4b06      	ldr	r3, [pc, #24]	; (110 <frame_dummy+0x34>)
      f8:	2b00      	cmp	r3, #0
      fa:	d0fb      	beq.n	f4 <frame_dummy+0x18>
      fc:	4798      	blx	r3
      fe:	e7f9      	b.n	f4 <frame_dummy+0x18>
     100:	00000000 	.word	0x00000000
     104:	20000024 	.word	0x20000024
     108:	000062dc 	.word	0x000062dc
     10c:	000062dc 	.word	0x000062dc
     110:	00000000 	.word	0x00000000

00000114 <i2c_master_is_syncing>:
				strcat(outval,"0");
				break;
			}
			case 1:
			{
				strcat(outval,"1");
     114:	b580      	push	{r7, lr}
     116:	b084      	sub	sp, #16
     118:	af00      	add	r7, sp, #0
     11a:	6078      	str	r0, [r7, #4]
     11c:	687b      	ldr	r3, [r7, #4]
     11e:	681b      	ldr	r3, [r3, #0]
     120:	60fb      	str	r3, [r7, #12]
     122:	68fb      	ldr	r3, [r7, #12]
     124:	69db      	ldr	r3, [r3, #28]
				break;
     126:	2207      	movs	r2, #7
			}
			case 2:
			{
				strcat(outval,"2");
     128:	4013      	ands	r3, r2
     12a:	1e5a      	subs	r2, r3, #1
     12c:	4193      	sbcs	r3, r2
     12e:	b2db      	uxtb	r3, r3
     130:	0018      	movs	r0, r3
     132:	46bd      	mov	sp, r7
     134:	b004      	add	sp, #16
     136:	bd80      	pop	{r7, pc}

00000138 <_i2c_master_wait_for_sync>:
     138:	b580      	push	{r7, lr}
     13a:	b082      	sub	sp, #8
     13c:	af00      	add	r7, sp, #0
     13e:	6078      	str	r0, [r7, #4]
     140:	46c0      	nop			; (mov r8, r8)
     142:	687b      	ldr	r3, [r7, #4]
     144:	0018      	movs	r0, r3
     146:	4b04      	ldr	r3, [pc, #16]	; (158 <_i2c_master_wait_for_sync+0x20>)
     148:	4798      	blx	r3
				break;
     14a:	1e03      	subs	r3, r0, #0
			}
			case 3:
			{
				strcat(outval,"3");
     14c:	d1f9      	bne.n	142 <_i2c_master_wait_for_sync+0xa>
     14e:	46c0      	nop			; (mov r8, r8)
     150:	46bd      	mov	sp, r7
     152:	b002      	add	sp, #8
     154:	bd80      	pop	{r7, pc}
     156:	46c0      	nop			; (mov r8, r8)
     158:	00000115 	.word	0x00000115

0000015c <i2c_master_get_config_defaults>:
     15c:	b580      	push	{r7, lr}
     15e:	b082      	sub	sp, #8
     160:	af00      	add	r7, sp, #0
     162:	6078      	str	r0, [r7, #4]
     164:	687b      	ldr	r3, [r7, #4]
     166:	22c8      	movs	r2, #200	; 0xc8
     168:	0052      	lsls	r2, r2, #1
     16a:	601a      	str	r2, [r3, #0]
     16c:	687b      	ldr	r3, [r7, #4]
				break;
     16e:	22c8      	movs	r2, #200	; 0xc8
			}
			case 4:
			{
				strcat(outval,"4");
     170:	0052      	lsls	r2, r2, #1
     172:	605a      	str	r2, [r3, #4]
     174:	687b      	ldr	r3, [r7, #4]
     176:	2200      	movs	r2, #0
     178:	609a      	str	r2, [r3, #8]
     17a:	687b      	ldr	r3, [r7, #4]
     17c:	2200      	movs	r2, #0
     17e:	731a      	strb	r2, [r3, #12]
     180:	687b      	ldr	r3, [r7, #4]
     182:	2200      	movs	r2, #0
     184:	761a      	strb	r2, [r3, #24]
     186:	687b      	ldr	r3, [r7, #4]
     188:	2280      	movs	r2, #128	; 0x80
     18a:	0392      	lsls	r2, r2, #14
     18c:	611a      	str	r2, [r3, #16]
     18e:	687b      	ldr	r3, [r7, #4]
     190:	2201      	movs	r2, #1
				break;
     192:	4252      	negs	r2, r2
			}
			case 5:
			{
				strcat(outval,"5");
     194:	82da      	strh	r2, [r3, #22]
     196:	687b      	ldr	r3, [r7, #4]
     198:	2201      	movs	r2, #1
     19a:	4252      	negs	r2, r2
     19c:	829a      	strh	r2, [r3, #20]
     19e:	687b      	ldr	r3, [r7, #4]
     1a0:	2200      	movs	r2, #0
     1a2:	61da      	str	r2, [r3, #28]
     1a4:	687b      	ldr	r3, [r7, #4]
     1a6:	2200      	movs	r2, #0
     1a8:	621a      	str	r2, [r3, #32]
     1aa:	687b      	ldr	r3, [r7, #4]
     1ac:	2224      	movs	r2, #36	; 0x24
     1ae:	2100      	movs	r1, #0
     1b0:	5499      	strb	r1, [r3, r2]
     1b2:	687b      	ldr	r3, [r7, #4]
     1b4:	2200      	movs	r2, #0
				break;
     1b6:	629a      	str	r2, [r3, #40]	; 0x28
			}
			case 6:
			{
				strcat(outval,"6");
     1b8:	687b      	ldr	r3, [r7, #4]
     1ba:	222c      	movs	r2, #44	; 0x2c
     1bc:	2100      	movs	r1, #0
     1be:	5499      	strb	r1, [r3, r2]
     1c0:	687b      	ldr	r3, [r7, #4]
     1c2:	222d      	movs	r2, #45	; 0x2d
     1c4:	2100      	movs	r1, #0
     1c6:	5499      	strb	r1, [r3, r2]
     1c8:	687b      	ldr	r3, [r7, #4]
     1ca:	222e      	movs	r2, #46	; 0x2e
     1cc:	2100      	movs	r1, #0
     1ce:	5499      	strb	r1, [r3, r2]
     1d0:	687b      	ldr	r3, [r7, #4]
     1d2:	22d7      	movs	r2, #215	; 0xd7
     1d4:	861a      	strh	r2, [r3, #48]	; 0x30
     1d6:	46c0      	nop			; (mov r8, r8)
     1d8:	46bd      	mov	sp, r7
				break;
     1da:	b002      	add	sp, #8
			}
			case 7:
			{
				strcat(outval,"7");
     1dc:	bd80      	pop	{r7, pc}
     1de:	46c0      	nop			; (mov r8, r8)

000001e0 <i2c_master_enable>:
     1e0:	b580      	push	{r7, lr}
     1e2:	b084      	sub	sp, #16
     1e4:	af00      	add	r7, sp, #0
     1e6:	6078      	str	r0, [r7, #4]
     1e8:	687b      	ldr	r3, [r7, #4]
     1ea:	681b      	ldr	r3, [r3, #0]
     1ec:	60bb      	str	r3, [r7, #8]
     1ee:	2300      	movs	r3, #0
     1f0:	60fb      	str	r3, [r7, #12]
     1f2:	687b      	ldr	r3, [r7, #4]
     1f4:	0018      	movs	r0, r3
     1f6:	4b10      	ldr	r3, [pc, #64]	; (238 <i2c_master_enable+0x58>)
     1f8:	4798      	blx	r3
     1fa:	68bb      	ldr	r3, [r7, #8]
     1fc:	681b      	ldr	r3, [r3, #0]
				break;
     1fe:	2202      	movs	r2, #2
			}
			case 8:
			{
				strcat(outval,"8");
     200:	431a      	orrs	r2, r3
     202:	68bb      	ldr	r3, [r7, #8]
     204:	601a      	str	r2, [r3, #0]
     206:	e00c      	b.n	222 <i2c_master_enable+0x42>
     208:	68fb      	ldr	r3, [r7, #12]
     20a:	3301      	adds	r3, #1
     20c:	60fb      	str	r3, [r7, #12]
     20e:	687b      	ldr	r3, [r7, #4]
     210:	88db      	ldrh	r3, [r3, #6]
     212:	1e1a      	subs	r2, r3, #0
     214:	68fb      	ldr	r3, [r7, #12]
     216:	429a      	cmp	r2, r3
     218:	d803      	bhi.n	222 <i2c_master_enable+0x42>
     21a:	68bb      	ldr	r3, [r7, #8]
     21c:	2210      	movs	r2, #16
     21e:	835a      	strh	r2, [r3, #26]
     220:	e006      	b.n	230 <i2c_master_enable+0x50>
				break;
     222:	68bb      	ldr	r3, [r7, #8]
			}
			case 9:
			{
				strcat(outval,"9");
     224:	8b5b      	ldrh	r3, [r3, #26]
     226:	b29b      	uxth	r3, r3
     228:	001a      	movs	r2, r3
     22a:	2310      	movs	r3, #16
     22c:	4013      	ands	r3, r2
     22e:	d0eb      	beq.n	208 <i2c_master_enable+0x28>
     230:	46bd      	mov	sp, r7
     232:	b004      	add	sp, #16
     234:	bd80      	pop	{r7, pc}
     236:	46c0      	nop			; (mov r8, r8)
     238:	00000139 	.word	0x00000139

0000023c <OLED_bar_graph>:
     23c:	b5b0      	push	{r4, r5, r7, lr}
     23e:	b088      	sub	sp, #32
     240:	af02      	add	r7, sp, #8
     242:	6078      	str	r0, [r7, #4]
     244:	000c      	movs	r4, r1
				break;
     246:	0010      	movs	r0, r2
			}
			case 10:
				{
				strcat(outval,"A");
     248:	0019      	movs	r1, r3
     24a:	1cfb      	adds	r3, r7, #3
     24c:	1c22      	adds	r2, r4, #0
     24e:	701a      	strb	r2, [r3, #0]
     250:	1cbb      	adds	r3, r7, #2
     252:	1c02      	adds	r2, r0, #0
     254:	701a      	strb	r2, [r3, #0]
     256:	1c7b      	adds	r3, r7, #1
     258:	1c0a      	adds	r2, r1, #0
     25a:	701a      	strb	r2, [r3, #0]
     25c:	2317      	movs	r3, #23
     25e:	18fb      	adds	r3, r7, r3
     260:	2200      	movs	r2, #0
     262:	701a      	strb	r2, [r3, #0]
     264:	1cbb      	adds	r3, r7, #2
     266:	781b      	ldrb	r3, [r3, #0]
     268:	00db      	lsls	r3, r3, #3
				break;
     26a:	b2d8      	uxtb	r0, r3
				}
			case 11:
				{
				strcat(outval,"B");
     26c:	1c7b      	adds	r3, r7, #1
     26e:	781b      	ldrb	r3, [r3, #0]
     270:	00db      	lsls	r3, r3, #3
     272:	b2d9      	uxtb	r1, r3
     274:	1cbb      	adds	r3, r7, #2
     276:	2228      	movs	r2, #40	; 0x28
     278:	18bc      	adds	r4, r7, r2
     27a:	781a      	ldrb	r2, [r3, #0]
     27c:	7823      	ldrb	r3, [r4, #0]
     27e:	18d3      	adds	r3, r2, r3
     280:	b2db      	uxtb	r3, r3
     282:	00db      	lsls	r3, r3, #3
     284:	b2da      	uxtb	r2, r3
     286:	1c7b      	adds	r3, r7, #1
     288:	781b      	ldrb	r3, [r3, #0]
     28a:	00db      	lsls	r3, r3, #3
     28c:	b2dc      	uxtb	r4, r3
				break;
     28e:	2301      	movs	r3, #1
				}
			case 12:
			{
				strcat(outval,"C");
     290:	9300      	str	r3, [sp, #0]
     292:	0023      	movs	r3, r4
     294:	4c94      	ldr	r4, [pc, #592]	; (4e8 <OLED_bar_graph+0x2ac>)
     296:	47a0      	blx	r4
     298:	1cbb      	adds	r3, r7, #2
     29a:	781b      	ldrb	r3, [r3, #0]
     29c:	00db      	lsls	r3, r3, #3
     29e:	b2d8      	uxtb	r0, r3
     2a0:	1c7b      	adds	r3, r7, #1
     2a2:	781b      	ldrb	r3, [r3, #0]
     2a4:	3301      	adds	r3, #1
     2a6:	b2db      	uxtb	r3, r3
     2a8:	00db      	lsls	r3, r3, #3
     2aa:	b2d9      	uxtb	r1, r3
     2ac:	1cbb      	adds	r3, r7, #2
     2ae:	2228      	movs	r2, #40	; 0x28
     2b0:	18bc      	adds	r4, r7, r2
				break;
     2b2:	781a      	ldrb	r2, [r3, #0]
			}
			case 13:
			{
				strcat(outval,"D");
     2b4:	7823      	ldrb	r3, [r4, #0]
     2b6:	18d3      	adds	r3, r2, r3
     2b8:	b2db      	uxtb	r3, r3
     2ba:	00db      	lsls	r3, r3, #3
     2bc:	b2da      	uxtb	r2, r3
     2be:	1c7b      	adds	r3, r7, #1
     2c0:	781b      	ldrb	r3, [r3, #0]
     2c2:	3301      	adds	r3, #1
     2c4:	b2db      	uxtb	r3, r3
     2c6:	00db      	lsls	r3, r3, #3
     2c8:	b2dc      	uxtb	r4, r3
     2ca:	2301      	movs	r3, #1
     2cc:	9300      	str	r3, [sp, #0]
     2ce:	0023      	movs	r3, r4
     2d0:	4c85      	ldr	r4, [pc, #532]	; (4e8 <OLED_bar_graph+0x2ac>)
     2d2:	47a0      	blx	r4
     2d4:	1cbb      	adds	r3, r7, #2
				break;
     2d6:	781b      	ldrb	r3, [r3, #0]
			}
			case 14:
			{
				strcat(outval,"E");
     2d8:	00db      	lsls	r3, r3, #3
     2da:	b2d8      	uxtb	r0, r3
     2dc:	1c7b      	adds	r3, r7, #1
     2de:	781b      	ldrb	r3, [r3, #0]
     2e0:	00db      	lsls	r3, r3, #3
     2e2:	b2d9      	uxtb	r1, r3
     2e4:	1cbb      	adds	r3, r7, #2
     2e6:	781b      	ldrb	r3, [r3, #0]
     2e8:	00db      	lsls	r3, r3, #3
     2ea:	b2da      	uxtb	r2, r3
     2ec:	1c7b      	adds	r3, r7, #1
     2ee:	781b      	ldrb	r3, [r3, #0]
     2f0:	3301      	adds	r3, #1
     2f2:	b2db      	uxtb	r3, r3
     2f4:	00db      	lsls	r3, r3, #3
     2f6:	b2dc      	uxtb	r4, r3
     2f8:	2301      	movs	r3, #1
				break;
     2fa:	9300      	str	r3, [sp, #0]
			}
			case 15:
			{
				strcat(outval,"F");
     2fc:	0023      	movs	r3, r4
     2fe:	4c7a      	ldr	r4, [pc, #488]	; (4e8 <OLED_bar_graph+0x2ac>)
     300:	47a0      	blx	r4
     302:	1cbb      	adds	r3, r7, #2
     304:	2228      	movs	r2, #40	; 0x28
     306:	18b9      	adds	r1, r7, r2
     308:	781a      	ldrb	r2, [r3, #0]
     30a:	780b      	ldrb	r3, [r1, #0]
     30c:	18d3      	adds	r3, r2, r3
     30e:	b2db      	uxtb	r3, r3
     310:	00db      	lsls	r3, r3, #3
     312:	b2d8      	uxtb	r0, r3
     314:	1c7b      	adds	r3, r7, #1
     316:	781b      	ldrb	r3, [r3, #0]
     318:	00db      	lsls	r3, r3, #3
     31a:	b2d9      	uxtb	r1, r3
     31c:	1cbb      	adds	r3, r7, #2
				break;
     31e:	2228      	movs	r2, #40	; 0x28
			reverse_vals[i]=tmp%16;
			if (tmp>=16)
				tmp=tmp/16;
			else tmp=0;
		}
	for (i=0;i<(outchars+1);i++)
     320:	18bc      	adds	r4, r7, r2
     322:	781a      	ldrb	r2, [r3, #0]
     324:	7823      	ldrb	r3, [r4, #0]
     326:	18d3      	adds	r3, r2, r3
     328:	b2db      	uxtb	r3, r3
     32a:	00db      	lsls	r3, r3, #3
     32c:	b2da      	uxtb	r2, r3
     32e:	1c7b      	adds	r3, r7, #1
     330:	781b      	ldrb	r3, [r3, #0]
     332:	3301      	adds	r3, #1
     334:	b2db      	uxtb	r3, r3
     336:	00db      	lsls	r3, r3, #3
     338:	b2dc      	uxtb	r4, r3
     33a:	2301      	movs	r3, #1
     33c:	9300      	str	r3, [sp, #0]
     33e:	0023      	movs	r3, r4
     340:	4c69      	ldr	r4, [pc, #420]	; (4e8 <OLED_bar_graph+0x2ac>)
     342:	47a0      	blx	r4
     344:	2328      	movs	r3, #40	; 0x28
     346:	18fb      	adds	r3, r7, r3
     348:	781b      	ldrb	r3, [r3, #0]
				strcat(outval,"F");
				break;
			}				
			}
	}
	pass_string(outval,xx,yy,0);
     34a:	00db      	lsls	r3, r3, #3
     34c:	b2da      	uxtb	r2, r3
     34e:	2316      	movs	r3, #22
     350:	18fb      	adds	r3, r7, r3
     352:	3a04      	subs	r2, #4
     354:	701a      	strb	r2, [r3, #0]
     356:	23ff      	movs	r3, #255	; 0xff
     358:	613b      	str	r3, [r7, #16]
     35a:	4b64      	ldr	r3, [pc, #400]	; (4ec <OLED_bar_graph+0x2b0>)
}
     35c:	6878      	ldr	r0, [r7, #4]
     35e:	4798      	blx	r3
     360:	1c04      	adds	r4, r0, #0
     362:	4b62      	ldr	r3, [pc, #392]	; (4ec <OLED_bar_graph+0x2b0>)
     364:	6938      	ldr	r0, [r7, #16]
     366:	4798      	blx	r3
     368:	1c02      	adds	r2, r0, #0
     36a:	4b61      	ldr	r3, [pc, #388]	; (4f0 <OLED_bar_graph+0x2b4>)
     36c:	1c11      	adds	r1, r2, #0
     36e:	1c20      	adds	r0, r4, #0
     370:	4798      	blx	r3
     372:	1c03      	adds	r3, r0, #0
     374:	1c1c      	adds	r4, r3, #0
     376:	2316      	movs	r3, #22
     378:	18fb      	adds	r3, r7, r3
     37a:	781a      	ldrb	r2, [r3, #0]
     37c:	4b5b      	ldr	r3, [pc, #364]	; (4ec <OLED_bar_graph+0x2b0>)
     37e:	0010      	movs	r0, r2
     380:	4798      	blx	r3
     382:	1c02      	adds	r2, r0, #0
     384:	4b5b      	ldr	r3, [pc, #364]	; (4f4 <OLED_bar_graph+0x2b8>)
     386:	1c11      	adds	r1, r2, #0
     388:	1c20      	adds	r0, r4, #0
     38a:	4798      	blx	r3
     38c:	1c03      	adds	r3, r0, #0
     38e:	60fb      	str	r3, [r7, #12]
     390:	4b59      	ldr	r3, [pc, #356]	; (4f8 <OLED_bar_graph+0x2bc>)
     392:	68f8      	ldr	r0, [r7, #12]
     394:	4798      	blx	r3
     396:	0002      	movs	r2, r0
     398:	2317      	movs	r3, #23
     39a:	18fb      	adds	r3, r7, r3
     39c:	701a      	strb	r2, [r3, #0]
     39e:	1cbb      	adds	r3, r7, #2
     3a0:	781b      	ldrb	r3, [r3, #0]
     3a2:	00db      	lsls	r3, r3, #3
     3a4:	b2db      	uxtb	r3, r3
     3a6:	3302      	adds	r3, #2
     3a8:	b2dc      	uxtb	r4, r3
     3aa:	1c7b      	adds	r3, r7, #1
     3ac:	781b      	ldrb	r3, [r3, #0]
     3ae:	3302      	adds	r3, #2
     3b0:	b2dd      	uxtb	r5, r3
     3b2:	1cbb      	adds	r3, r7, #2
     3b4:	781b      	ldrb	r3, [r3, #0]
     3b6:	00db      	lsls	r3, r3, #3
     3b8:	1c9a      	adds	r2, r3, #2
     3ba:	4b50      	ldr	r3, [pc, #320]	; (4fc <OLED_bar_graph+0x2c0>)
	OLED_line(((xx+length)*8),(yy*8),((xx+length)*8),((yy+1)*8),1);
	pixel_length=(length*8)-4; // take off 2 for outline;
	max=255;// 1<<bits;
	bar_length=((float) val_in/(float) max)* (float) pixel_length;
	bar=(int) bar_length;
	OLED_line(((xx*8)+2),(yy+2),((xx*8)+2+bar_length),(yy+2),1);
     3bc:	0010      	movs	r0, r2
     3be:	4798      	blx	r3
     3c0:	1c02      	adds	r2, r0, #0
     3c2:	4b4f      	ldr	r3, [pc, #316]	; (500 <OLED_bar_graph+0x2c4>)
     3c4:	68f9      	ldr	r1, [r7, #12]
     3c6:	1c10      	adds	r0, r2, #0
     3c8:	4798      	blx	r3
     3ca:	1c03      	adds	r3, r0, #0
     3cc:	1c1a      	adds	r2, r3, #0
     3ce:	4b4d      	ldr	r3, [pc, #308]	; (504 <OLED_bar_graph+0x2c8>)
     3d0:	1c10      	adds	r0, r2, #0
     3d2:	4798      	blx	r3
     3d4:	0003      	movs	r3, r0
     3d6:	b2da      	uxtb	r2, r3
     3d8:	1c7b      	adds	r3, r7, #1
     3da:	781b      	ldrb	r3, [r3, #0]
     3dc:	3302      	adds	r3, #2
     3de:	b2d9      	uxtb	r1, r3
     3e0:	2301      	movs	r3, #1
     3e2:	9300      	str	r3, [sp, #0]
     3e4:	000b      	movs	r3, r1
     3e6:	0029      	movs	r1, r5
     3e8:	0020      	movs	r0, r4
     3ea:	4c3f      	ldr	r4, [pc, #252]	; (4e8 <OLED_bar_graph+0x2ac>)
     3ec:	47a0      	blx	r4
	OLED_line(((xx*8)+2),(yy+3),((xx*8)+2+bar_length),(yy+3),1);
     3ee:	1cbb      	adds	r3, r7, #2
     3f0:	781b      	ldrb	r3, [r3, #0]
     3f2:	00db      	lsls	r3, r3, #3
     3f4:	b2db      	uxtb	r3, r3
     3f6:	3302      	adds	r3, #2
     3f8:	b2dc      	uxtb	r4, r3
     3fa:	1c7b      	adds	r3, r7, #1
     3fc:	781b      	ldrb	r3, [r3, #0]
     3fe:	3303      	adds	r3, #3
     400:	b2dd      	uxtb	r5, r3
     402:	1cbb      	adds	r3, r7, #2
     404:	781b      	ldrb	r3, [r3, #0]
     406:	00db      	lsls	r3, r3, #3
     408:	1c9a      	adds	r2, r3, #2
     40a:	4b3c      	ldr	r3, [pc, #240]	; (4fc <OLED_bar_graph+0x2c0>)
     40c:	0010      	movs	r0, r2
     40e:	4798      	blx	r3
     410:	1c02      	adds	r2, r0, #0
     412:	4b3b      	ldr	r3, [pc, #236]	; (500 <OLED_bar_graph+0x2c4>)
     414:	68f9      	ldr	r1, [r7, #12]
     416:	1c10      	adds	r0, r2, #0
     418:	4798      	blx	r3
     41a:	1c03      	adds	r3, r0, #0
     41c:	1c1a      	adds	r2, r3, #0
     41e:	4b39      	ldr	r3, [pc, #228]	; (504 <OLED_bar_graph+0x2c8>)
     420:	1c10      	adds	r0, r2, #0
     422:	4798      	blx	r3
     424:	0003      	movs	r3, r0
     426:	b2da      	uxtb	r2, r3
     428:	1c7b      	adds	r3, r7, #1
     42a:	781b      	ldrb	r3, [r3, #0]
     42c:	3303      	adds	r3, #3
     42e:	b2d9      	uxtb	r1, r3
     430:	2301      	movs	r3, #1
     432:	9300      	str	r3, [sp, #0]
     434:	000b      	movs	r3, r1
     436:	0029      	movs	r1, r5
     438:	0020      	movs	r0, r4
     43a:	4c2b      	ldr	r4, [pc, #172]	; (4e8 <OLED_bar_graph+0x2ac>)
     43c:	47a0      	blx	r4
	OLED_line(((xx*8)+2),(yy+4),((xx*8)+2+bar_length),(yy+4),1);
     43e:	1cbb      	adds	r3, r7, #2
     440:	781b      	ldrb	r3, [r3, #0]
     442:	00db      	lsls	r3, r3, #3
     444:	b2db      	uxtb	r3, r3
     446:	3302      	adds	r3, #2
     448:	b2dc      	uxtb	r4, r3
     44a:	1c7b      	adds	r3, r7, #1
     44c:	781b      	ldrb	r3, [r3, #0]
     44e:	3304      	adds	r3, #4
     450:	b2dd      	uxtb	r5, r3
     452:	1cbb      	adds	r3, r7, #2
     454:	781b      	ldrb	r3, [r3, #0]
     456:	00db      	lsls	r3, r3, #3
     458:	1c9a      	adds	r2, r3, #2
     45a:	4b28      	ldr	r3, [pc, #160]	; (4fc <OLED_bar_graph+0x2c0>)
     45c:	0010      	movs	r0, r2
     45e:	4798      	blx	r3
     460:	1c02      	adds	r2, r0, #0
     462:	4b27      	ldr	r3, [pc, #156]	; (500 <OLED_bar_graph+0x2c4>)
     464:	68f9      	ldr	r1, [r7, #12]
     466:	1c10      	adds	r0, r2, #0
     468:	4798      	blx	r3
     46a:	1c03      	adds	r3, r0, #0
     46c:	1c1a      	adds	r2, r3, #0
     46e:	4b25      	ldr	r3, [pc, #148]	; (504 <OLED_bar_graph+0x2c8>)
     470:	1c10      	adds	r0, r2, #0
     472:	4798      	blx	r3
     474:	0003      	movs	r3, r0
     476:	b2da      	uxtb	r2, r3
     478:	1c7b      	adds	r3, r7, #1
     47a:	781b      	ldrb	r3, [r3, #0]
     47c:	3304      	adds	r3, #4
     47e:	b2d9      	uxtb	r1, r3
     480:	2301      	movs	r3, #1
     482:	9300      	str	r3, [sp, #0]
     484:	000b      	movs	r3, r1
     486:	0029      	movs	r1, r5
     488:	0020      	movs	r0, r4
     48a:	4c17      	ldr	r4, [pc, #92]	; (4e8 <OLED_bar_graph+0x2ac>)
     48c:	47a0      	blx	r4
	OLED_line(((xx*8)+2),(yy+5),((xx*8)+2+bar_length),(yy+5),1);
     48e:	1cbb      	adds	r3, r7, #2
     490:	781b      	ldrb	r3, [r3, #0]
     492:	00db      	lsls	r3, r3, #3
     494:	b2db      	uxtb	r3, r3
     496:	3302      	adds	r3, #2
     498:	b2dc      	uxtb	r4, r3
     49a:	1c7b      	adds	r3, r7, #1
     49c:	781b      	ldrb	r3, [r3, #0]
     49e:	3305      	adds	r3, #5
     4a0:	b2dd      	uxtb	r5, r3
     4a2:	1cbb      	adds	r3, r7, #2
     4a4:	781b      	ldrb	r3, [r3, #0]
     4a6:	00db      	lsls	r3, r3, #3
     4a8:	1c9a      	adds	r2, r3, #2
     4aa:	4b14      	ldr	r3, [pc, #80]	; (4fc <OLED_bar_graph+0x2c0>)
     4ac:	0010      	movs	r0, r2
     4ae:	4798      	blx	r3
     4b0:	1c02      	adds	r2, r0, #0
     4b2:	4b13      	ldr	r3, [pc, #76]	; (500 <OLED_bar_graph+0x2c4>)
     4b4:	68f9      	ldr	r1, [r7, #12]
     4b6:	1c10      	adds	r0, r2, #0
     4b8:	4798      	blx	r3
     4ba:	1c03      	adds	r3, r0, #0
     4bc:	1c1a      	adds	r2, r3, #0
     4be:	4b11      	ldr	r3, [pc, #68]	; (504 <OLED_bar_graph+0x2c8>)
     4c0:	1c10      	adds	r0, r2, #0
     4c2:	4798      	blx	r3
     4c4:	0003      	movs	r3, r0
     4c6:	b2da      	uxtb	r2, r3
     4c8:	1c7b      	adds	r3, r7, #1
     4ca:	781b      	ldrb	r3, [r3, #0]
     4cc:	3305      	adds	r3, #5
     4ce:	b2d9      	uxtb	r1, r3
     4d0:	2301      	movs	r3, #1
     4d2:	9300      	str	r3, [sp, #0]
     4d4:	000b      	movs	r3, r1
     4d6:	0029      	movs	r1, r5
     4d8:	0020      	movs	r0, r4
     4da:	4c03      	ldr	r4, [pc, #12]	; (4e8 <OLED_bar_graph+0x2ac>)
     4dc:	47a0      	blx	r4
	// clear area after bar to ensure it is blank

}
     4de:	46c0      	nop			; (mov r8, r8)
     4e0:	46bd      	mov	sp, r7
     4e2:	b006      	add	sp, #24
     4e4:	bdb0      	pop	{r4, r5, r7, pc}
     4e6:	46c0      	nop			; (mov r8, r8)
     4e8:	00000a01 	.word	0x00000a01
     4ec:	0000471d 	.word	0x0000471d
     4f0:	00003d81 	.word	0x00003d81
     4f4:	00004115 	.word	0x00004115
     4f8:	00004649 	.word	0x00004649
     4fc:	0000468d 	.word	0x0000468d
     500:	00003a95 	.word	0x00003a95
     504:	00003a65 	.word	0x00003a65

00000508 <put_pixel>:
	}
	OLED_UPDATE();
}

void put_pixel(uint8_t xx, uint8_t yy, volatile bool pixel_on)
{
     508:	b590      	push	{r4, r7, lr}
     50a:	b085      	sub	sp, #20
     50c:	af00      	add	r7, sp, #0
     50e:	0004      	movs	r4, r0
     510:	0008      	movs	r0, r1
     512:	0011      	movs	r1, r2
     514:	1dfb      	adds	r3, r7, #7
     516:	1c22      	adds	r2, r4, #0
     518:	701a      	strb	r2, [r3, #0]
     51a:	1dbb      	adds	r3, r7, #6
     51c:	1c02      	adds	r2, r0, #0
     51e:	701a      	strb	r2, [r3, #0]
     520:	1d7b      	adds	r3, r7, #5
     522:	1c0a      	adds	r2, r1, #0
     524:	701a      	strb	r2, [r3, #0]
	uint8_t row=yy/8;
     526:	230f      	movs	r3, #15
     528:	18fb      	adds	r3, r7, r3
     52a:	1dba      	adds	r2, r7, #6
     52c:	7812      	ldrb	r2, [r2, #0]
     52e:	08d2      	lsrs	r2, r2, #3
     530:	701a      	strb	r2, [r3, #0]
	uint8_t bt=yy%8;
     532:	230e      	movs	r3, #14
     534:	18fb      	adds	r3, r7, r3
     536:	1dba      	adds	r2, r7, #6
     538:	7812      	ldrb	r2, [r2, #0]
     53a:	2107      	movs	r1, #7
     53c:	400a      	ands	r2, r1
     53e:	701a      	strb	r2, [r3, #0]
	uint8_t n2=1;
     540:	230d      	movs	r3, #13
     542:	18fb      	adds	r3, r7, r3
     544:	2201      	movs	r2, #1
     546:	701a      	strb	r2, [r3, #0]
	uint8_t cnt_loc=0;
     548:	230c      	movs	r3, #12
     54a:	18fb      	adds	r3, r7, r3
     54c:	2200      	movs	r2, #0
     54e:	701a      	strb	r2, [r3, #0]
	//for (cnt_loc=0;cnt_loc<bt;cnt_loc++)
	//n2=n2*2;
	if (pixel_on)
     550:	1d7b      	adds	r3, r7, #5
     552:	781b      	ldrb	r3, [r3, #0]
     554:	b2db      	uxtb	r3, r3
     556:	2b00      	cmp	r3, #0
     558:	d01e      	beq.n	598 <put_pixel+0x90>
		screen[xx][row]=screen[xx][row]|(1<<bt);// n2;
     55a:	1dfb      	adds	r3, r7, #7
     55c:	781a      	ldrb	r2, [r3, #0]
     55e:	230f      	movs	r3, #15
     560:	18fb      	adds	r3, r7, r3
     562:	781b      	ldrb	r3, [r3, #0]
     564:	1df9      	adds	r1, r7, #7
     566:	7808      	ldrb	r0, [r1, #0]
     568:	210f      	movs	r1, #15
     56a:	1879      	adds	r1, r7, r1
     56c:	7809      	ldrb	r1, [r1, #0]
     56e:	4c1c      	ldr	r4, [pc, #112]	; (5e0 <put_pixel+0xd8>)
     570:	00c0      	lsls	r0, r0, #3
     572:	1820      	adds	r0, r4, r0
     574:	5c41      	ldrb	r1, [r0, r1]
     576:	b248      	sxtb	r0, r1
     578:	210e      	movs	r1, #14
     57a:	1879      	adds	r1, r7, r1
     57c:	7809      	ldrb	r1, [r1, #0]
     57e:	2401      	movs	r4, #1
     580:	408c      	lsls	r4, r1
     582:	0021      	movs	r1, r4
     584:	b249      	sxtb	r1, r1
     586:	4301      	orrs	r1, r0
     588:	b249      	sxtb	r1, r1
     58a:	b2c8      	uxtb	r0, r1
     58c:	4914      	ldr	r1, [pc, #80]	; (5e0 <put_pixel+0xd8>)
     58e:	00d2      	lsls	r2, r2, #3
     590:	188a      	adds	r2, r1, r2
     592:	1c01      	adds	r1, r0, #0
     594:	54d1      	strb	r1, [r2, r3]
	else
		screen[xx][row]=screen[xx][row]& ~(1<<bt);
}
     596:	e01f      	b.n	5d8 <put_pixel+0xd0>
	//for (cnt_loc=0;cnt_loc<bt;cnt_loc++)
	//n2=n2*2;
	if (pixel_on)
		screen[xx][row]=screen[xx][row]|(1<<bt);// n2;
	else
		screen[xx][row]=screen[xx][row]& ~(1<<bt);
     598:	1dfb      	adds	r3, r7, #7
     59a:	781a      	ldrb	r2, [r3, #0]
     59c:	230f      	movs	r3, #15
     59e:	18fb      	adds	r3, r7, r3
     5a0:	781b      	ldrb	r3, [r3, #0]
     5a2:	1df9      	adds	r1, r7, #7
     5a4:	7808      	ldrb	r0, [r1, #0]
     5a6:	210f      	movs	r1, #15
     5a8:	1879      	adds	r1, r7, r1
     5aa:	7809      	ldrb	r1, [r1, #0]
     5ac:	4c0c      	ldr	r4, [pc, #48]	; (5e0 <put_pixel+0xd8>)
     5ae:	00c0      	lsls	r0, r0, #3
     5b0:	1820      	adds	r0, r4, r0
     5b2:	5c41      	ldrb	r1, [r0, r1]
     5b4:	b249      	sxtb	r1, r1
     5b6:	200e      	movs	r0, #14
     5b8:	1838      	adds	r0, r7, r0
     5ba:	7800      	ldrb	r0, [r0, #0]
     5bc:	2401      	movs	r4, #1
     5be:	4084      	lsls	r4, r0
     5c0:	0020      	movs	r0, r4
     5c2:	b240      	sxtb	r0, r0
     5c4:	43c0      	mvns	r0, r0
     5c6:	b240      	sxtb	r0, r0
     5c8:	4001      	ands	r1, r0
     5ca:	b249      	sxtb	r1, r1
     5cc:	b2c8      	uxtb	r0, r1
     5ce:	4904      	ldr	r1, [pc, #16]	; (5e0 <put_pixel+0xd8>)
     5d0:	00d2      	lsls	r2, r2, #3
     5d2:	188a      	adds	r2, r1, r2
     5d4:	1c01      	adds	r1, r0, #0
     5d6:	54d1      	strb	r1, [r2, r3]
}
     5d8:	46c0      	nop			; (mov r8, r8)
     5da:	46bd      	mov	sp, r7
     5dc:	b005      	add	sp, #20
     5de:	bd90      	pop	{r4, r7, pc}
     5e0:	200002c4 	.word	0x200002c4

000005e4 <OLED_TIC_UPDATE>:
		}
	}
}

void OLED_TIC_UPDATE(void)
{
     5e4:	b590      	push	{r4, r7, lr}
     5e6:	b083      	sub	sp, #12
     5e8:	af02      	add	r7, sp, #8
if (tik > 7) tik_up=0;
     5ea:	4b2b      	ldr	r3, [pc, #172]	; (698 <OLED_TIC_UPDATE+0xb4>)
     5ec:	781b      	ldrb	r3, [r3, #0]
     5ee:	b25b      	sxtb	r3, r3
     5f0:	2b07      	cmp	r3, #7
     5f2:	dd02      	ble.n	5fa <OLED_TIC_UPDATE+0x16>
     5f4:	4b29      	ldr	r3, [pc, #164]	; (69c <OLED_TIC_UPDATE+0xb8>)
     5f6:	2200      	movs	r2, #0
     5f8:	701a      	strb	r2, [r3, #0]
if (tik < 0) tik_up=1;
     5fa:	4b27      	ldr	r3, [pc, #156]	; (698 <OLED_TIC_UPDATE+0xb4>)
     5fc:	781b      	ldrb	r3, [r3, #0]
     5fe:	b25b      	sxtb	r3, r3
     600:	2b00      	cmp	r3, #0
     602:	da02      	bge.n	60a <OLED_TIC_UPDATE+0x26>
     604:	4b25      	ldr	r3, [pc, #148]	; (69c <OLED_TIC_UPDATE+0xb8>)
     606:	2201      	movs	r2, #1
     608:	701a      	strb	r2, [r3, #0]
OLED_line((120+tik),56,(127-tik),63,0);
     60a:	4b23      	ldr	r3, [pc, #140]	; (698 <OLED_TIC_UPDATE+0xb4>)
     60c:	781b      	ldrb	r3, [r3, #0]
     60e:	b25b      	sxtb	r3, r3
     610:	b2db      	uxtb	r3, r3
     612:	3378      	adds	r3, #120	; 0x78
     614:	b2d8      	uxtb	r0, r3
     616:	4b20      	ldr	r3, [pc, #128]	; (698 <OLED_TIC_UPDATE+0xb4>)
     618:	781b      	ldrb	r3, [r3, #0]
     61a:	b25b      	sxtb	r3, r3
     61c:	b2db      	uxtb	r3, r3
     61e:	227f      	movs	r2, #127	; 0x7f
     620:	1ad3      	subs	r3, r2, r3
     622:	b2da      	uxtb	r2, r3
     624:	2300      	movs	r3, #0
     626:	9300      	str	r3, [sp, #0]
     628:	233f      	movs	r3, #63	; 0x3f
     62a:	2138      	movs	r1, #56	; 0x38
     62c:	4c1c      	ldr	r4, [pc, #112]	; (6a0 <OLED_TIC_UPDATE+0xbc>)
     62e:	47a0      	blx	r4
if (tik_up == 1)
     630:	4b1a      	ldr	r3, [pc, #104]	; (69c <OLED_TIC_UPDATE+0xb8>)
     632:	781b      	ldrb	r3, [r3, #0]
     634:	2b00      	cmp	r3, #0
     636:	d008      	beq.n	64a <OLED_TIC_UPDATE+0x66>
	tik++;
     638:	4b17      	ldr	r3, [pc, #92]	; (698 <OLED_TIC_UPDATE+0xb4>)
     63a:	781b      	ldrb	r3, [r3, #0]
     63c:	b25b      	sxtb	r3, r3
     63e:	b2db      	uxtb	r3, r3
     640:	3301      	adds	r3, #1
     642:	b2db      	uxtb	r3, r3
     644:	b25a      	sxtb	r2, r3
     646:	4b14      	ldr	r3, [pc, #80]	; (698 <OLED_TIC_UPDATE+0xb4>)
     648:	701a      	strb	r2, [r3, #0]
if (tik_up == 0)
     64a:	4b14      	ldr	r3, [pc, #80]	; (69c <OLED_TIC_UPDATE+0xb8>)
     64c:	781b      	ldrb	r3, [r3, #0]
     64e:	2201      	movs	r2, #1
     650:	4053      	eors	r3, r2
     652:	b2db      	uxtb	r3, r3
     654:	2b00      	cmp	r3, #0
     656:	d008      	beq.n	66a <OLED_TIC_UPDATE+0x86>
	tik--;
     658:	4b0f      	ldr	r3, [pc, #60]	; (698 <OLED_TIC_UPDATE+0xb4>)
     65a:	781b      	ldrb	r3, [r3, #0]
     65c:	b25b      	sxtb	r3, r3
     65e:	b2db      	uxtb	r3, r3
     660:	3b01      	subs	r3, #1
     662:	b2db      	uxtb	r3, r3
     664:	b25a      	sxtb	r2, r3
     666:	4b0c      	ldr	r3, [pc, #48]	; (698 <OLED_TIC_UPDATE+0xb4>)
     668:	701a      	strb	r2, [r3, #0]
OLED_line((120+tik),56,(127-tik),63,1);
     66a:	4b0b      	ldr	r3, [pc, #44]	; (698 <OLED_TIC_UPDATE+0xb4>)
     66c:	781b      	ldrb	r3, [r3, #0]
     66e:	b25b      	sxtb	r3, r3
     670:	b2db      	uxtb	r3, r3
     672:	3378      	adds	r3, #120	; 0x78
     674:	b2d8      	uxtb	r0, r3
     676:	4b08      	ldr	r3, [pc, #32]	; (698 <OLED_TIC_UPDATE+0xb4>)
     678:	781b      	ldrb	r3, [r3, #0]
     67a:	b25b      	sxtb	r3, r3
     67c:	b2db      	uxtb	r3, r3
     67e:	227f      	movs	r2, #127	; 0x7f
     680:	1ad3      	subs	r3, r2, r3
     682:	b2da      	uxtb	r2, r3
     684:	2301      	movs	r3, #1
     686:	9300      	str	r3, [sp, #0]
     688:	233f      	movs	r3, #63	; 0x3f
     68a:	2138      	movs	r1, #56	; 0x38
     68c:	4c04      	ldr	r4, [pc, #16]	; (6a0 <OLED_TIC_UPDATE+0xbc>)
     68e:	47a0      	blx	r4
}
     690:	46c0      	nop			; (mov r8, r8)
     692:	46bd      	mov	sp, r7
     694:	b001      	add	sp, #4
     696:	bd90      	pop	{r4, r7, pc}
     698:	200006c6 	.word	0x200006c6
     69c:	20000000 	.word	0x20000000
     6a0:	00000a01 	.word	0x00000a01

000006a4 <OLED_BUTTON>:
	}
	OLED_UPDATE();
}

void OLED_BUTTON(bool ON, uint8_t xpos, uint8_t ypos)
{
     6a4:	b590      	push	{r4, r7, lr}
     6a6:	b087      	sub	sp, #28
     6a8:	af02      	add	r7, sp, #8
     6aa:	0004      	movs	r4, r0
     6ac:	0008      	movs	r0, r1
     6ae:	0011      	movs	r1, r2
     6b0:	1dfb      	adds	r3, r7, #7
     6b2:	1c22      	adds	r2, r4, #0
     6b4:	701a      	strb	r2, [r3, #0]
     6b6:	1dbb      	adds	r3, r7, #6
     6b8:	1c02      	adds	r2, r0, #0
     6ba:	701a      	strb	r2, [r3, #0]
     6bc:	1d7b      	adds	r3, r7, #5
     6be:	1c0a      	adds	r2, r1, #0
     6c0:	701a      	strb	r2, [r3, #0]
	uint8_t x0,x1,y0,y1; // corners of button outline
	x0 = xpos * 8;
     6c2:	230f      	movs	r3, #15
     6c4:	18fb      	adds	r3, r7, r3
     6c6:	1dba      	adds	r2, r7, #6
     6c8:	7812      	ldrb	r2, [r2, #0]
     6ca:	00d2      	lsls	r2, r2, #3
     6cc:	701a      	strb	r2, [r3, #0]
	x1 = x0 + 7;
     6ce:	230e      	movs	r3, #14
     6d0:	18fb      	adds	r3, r7, r3
     6d2:	220f      	movs	r2, #15
     6d4:	18ba      	adds	r2, r7, r2
     6d6:	7812      	ldrb	r2, [r2, #0]
     6d8:	3207      	adds	r2, #7
     6da:	701a      	strb	r2, [r3, #0]
	y0 = ypos * 8;
     6dc:	230d      	movs	r3, #13
     6de:	18fb      	adds	r3, r7, r3
     6e0:	1d7a      	adds	r2, r7, #5
     6e2:	7812      	ldrb	r2, [r2, #0]
     6e4:	00d2      	lsls	r2, r2, #3
     6e6:	701a      	strb	r2, [r3, #0]
	y1 = y0 + 7;
     6e8:	230c      	movs	r3, #12
     6ea:	18fb      	adds	r3, r7, r3
     6ec:	220d      	movs	r2, #13
     6ee:	18ba      	adds	r2, r7, r2
     6f0:	7812      	ldrb	r2, [r2, #0]
     6f2:	3207      	adds	r2, #7
     6f4:	701a      	strb	r2, [r3, #0]
	if (ON)
     6f6:	1dfb      	adds	r3, r7, #7
     6f8:	781b      	ldrb	r3, [r3, #0]
     6fa:	2b00      	cmp	r3, #0
     6fc:	d100      	bne.n	700 <OLED_BUTTON+0x5c>
     6fe:	e0a8      	b.n	852 <STACK_SIZE+0x52>
	{
		OLED_line(x0,y0,x1,y0,1);
     700:	230d      	movs	r3, #13
     702:	18fb      	adds	r3, r7, r3
     704:	781c      	ldrb	r4, [r3, #0]
     706:	230e      	movs	r3, #14
     708:	18fb      	adds	r3, r7, r3
     70a:	781a      	ldrb	r2, [r3, #0]
     70c:	230d      	movs	r3, #13
     70e:	18fb      	adds	r3, r7, r3
     710:	7819      	ldrb	r1, [r3, #0]
     712:	230f      	movs	r3, #15
     714:	18fb      	adds	r3, r7, r3
     716:	7818      	ldrb	r0, [r3, #0]
     718:	2301      	movs	r3, #1
     71a:	9300      	str	r3, [sp, #0]
     71c:	0023      	movs	r3, r4
     71e:	4ca4      	ldr	r4, [pc, #656]	; (9b0 <STACK_SIZE+0x1b0>)
     720:	47a0      	blx	r4
		OLED_line(x1,y0,x1,y1,1);
     722:	230c      	movs	r3, #12
     724:	18fb      	adds	r3, r7, r3
     726:	781c      	ldrb	r4, [r3, #0]
     728:	230e      	movs	r3, #14
     72a:	18fb      	adds	r3, r7, r3
     72c:	781a      	ldrb	r2, [r3, #0]
     72e:	230d      	movs	r3, #13
     730:	18fb      	adds	r3, r7, r3
     732:	7819      	ldrb	r1, [r3, #0]
     734:	230e      	movs	r3, #14
     736:	18fb      	adds	r3, r7, r3
     738:	7818      	ldrb	r0, [r3, #0]
     73a:	2301      	movs	r3, #1
     73c:	9300      	str	r3, [sp, #0]
     73e:	0023      	movs	r3, r4
     740:	4c9b      	ldr	r4, [pc, #620]	; (9b0 <STACK_SIZE+0x1b0>)
     742:	47a0      	blx	r4
		OLED_line(x1,y1,x0,y1,1);
     744:	230c      	movs	r3, #12
     746:	18fb      	adds	r3, r7, r3
     748:	781c      	ldrb	r4, [r3, #0]
     74a:	230f      	movs	r3, #15
     74c:	18fb      	adds	r3, r7, r3
     74e:	781a      	ldrb	r2, [r3, #0]
     750:	230c      	movs	r3, #12
     752:	18fb      	adds	r3, r7, r3
     754:	7819      	ldrb	r1, [r3, #0]
     756:	230e      	movs	r3, #14
     758:	18fb      	adds	r3, r7, r3
     75a:	7818      	ldrb	r0, [r3, #0]
     75c:	2301      	movs	r3, #1
     75e:	9300      	str	r3, [sp, #0]
     760:	0023      	movs	r3, r4
     762:	4c93      	ldr	r4, [pc, #588]	; (9b0 <STACK_SIZE+0x1b0>)
     764:	47a0      	blx	r4
		OLED_line(x0,y1,x0,y0,1);
     766:	230d      	movs	r3, #13
     768:	18fb      	adds	r3, r7, r3
     76a:	781c      	ldrb	r4, [r3, #0]
     76c:	230f      	movs	r3, #15
     76e:	18fb      	adds	r3, r7, r3
     770:	781a      	ldrb	r2, [r3, #0]
     772:	230c      	movs	r3, #12
     774:	18fb      	adds	r3, r7, r3
     776:	7819      	ldrb	r1, [r3, #0]
     778:	230f      	movs	r3, #15
     77a:	18fb      	adds	r3, r7, r3
     77c:	7818      	ldrb	r0, [r3, #0]
     77e:	2301      	movs	r3, #1
     780:	9300      	str	r3, [sp, #0]
     782:	0023      	movs	r3, r4
     784:	4c8a      	ldr	r4, [pc, #552]	; (9b0 <STACK_SIZE+0x1b0>)
     786:	47a0      	blx	r4
		OLED_line(x0+2,y0+2,x1-2,y0+2,1);
     788:	230f      	movs	r3, #15
     78a:	18fb      	adds	r3, r7, r3
     78c:	781b      	ldrb	r3, [r3, #0]
     78e:	3302      	adds	r3, #2
     790:	b2d8      	uxtb	r0, r3
     792:	230d      	movs	r3, #13
     794:	18fb      	adds	r3, r7, r3
     796:	781b      	ldrb	r3, [r3, #0]
     798:	3302      	adds	r3, #2
     79a:	b2d9      	uxtb	r1, r3
     79c:	230e      	movs	r3, #14
     79e:	18fb      	adds	r3, r7, r3
     7a0:	781b      	ldrb	r3, [r3, #0]
     7a2:	3b02      	subs	r3, #2
     7a4:	b2da      	uxtb	r2, r3
     7a6:	230d      	movs	r3, #13
     7a8:	18fb      	adds	r3, r7, r3
     7aa:	781b      	ldrb	r3, [r3, #0]
     7ac:	3302      	adds	r3, #2
     7ae:	b2dc      	uxtb	r4, r3
     7b0:	2301      	movs	r3, #1
     7b2:	9300      	str	r3, [sp, #0]
     7b4:	0023      	movs	r3, r4
     7b6:	4c7e      	ldr	r4, [pc, #504]	; (9b0 <STACK_SIZE+0x1b0>)
     7b8:	47a0      	blx	r4
		OLED_line(x0+2,y0+3,x1-2,y0+3,1);
     7ba:	230f      	movs	r3, #15
     7bc:	18fb      	adds	r3, r7, r3
     7be:	781b      	ldrb	r3, [r3, #0]
     7c0:	3302      	adds	r3, #2
     7c2:	b2d8      	uxtb	r0, r3
     7c4:	230d      	movs	r3, #13
     7c6:	18fb      	adds	r3, r7, r3
     7c8:	781b      	ldrb	r3, [r3, #0]
     7ca:	3303      	adds	r3, #3
     7cc:	b2d9      	uxtb	r1, r3
     7ce:	230e      	movs	r3, #14
     7d0:	18fb      	adds	r3, r7, r3
     7d2:	781b      	ldrb	r3, [r3, #0]
     7d4:	3b02      	subs	r3, #2
     7d6:	b2da      	uxtb	r2, r3
     7d8:	230d      	movs	r3, #13
     7da:	18fb      	adds	r3, r7, r3
     7dc:	781b      	ldrb	r3, [r3, #0]
     7de:	3303      	adds	r3, #3
     7e0:	b2dc      	uxtb	r4, r3
     7e2:	2301      	movs	r3, #1
     7e4:	9300      	str	r3, [sp, #0]
     7e6:	0023      	movs	r3, r4
     7e8:	4c71      	ldr	r4, [pc, #452]	; (9b0 <STACK_SIZE+0x1b0>)
     7ea:	47a0      	blx	r4
		OLED_line(x0+2,y0+4,x1-2,y0+4,1);
     7ec:	230f      	movs	r3, #15
     7ee:	18fb      	adds	r3, r7, r3
     7f0:	781b      	ldrb	r3, [r3, #0]
     7f2:	3302      	adds	r3, #2
     7f4:	b2d8      	uxtb	r0, r3
     7f6:	230d      	movs	r3, #13
     7f8:	18fb      	adds	r3, r7, r3
     7fa:	781b      	ldrb	r3, [r3, #0]
     7fc:	3304      	adds	r3, #4
     7fe:	b2d9      	uxtb	r1, r3
     800:	230e      	movs	r3, #14
     802:	18fb      	adds	r3, r7, r3
     804:	781b      	ldrb	r3, [r3, #0]
     806:	3b02      	subs	r3, #2
     808:	b2da      	uxtb	r2, r3
     80a:	230d      	movs	r3, #13
     80c:	18fb      	adds	r3, r7, r3
     80e:	781b      	ldrb	r3, [r3, #0]
     810:	3304      	adds	r3, #4
     812:	b2dc      	uxtb	r4, r3
     814:	2301      	movs	r3, #1
     816:	9300      	str	r3, [sp, #0]
     818:	0023      	movs	r3, r4
     81a:	4c65      	ldr	r4, [pc, #404]	; (9b0 <STACK_SIZE+0x1b0>)
     81c:	47a0      	blx	r4
		OLED_line(x0+2,y0+5,x1-2,y0+5,1);
     81e:	230f      	movs	r3, #15
     820:	18fb      	adds	r3, r7, r3
     822:	781b      	ldrb	r3, [r3, #0]
     824:	3302      	adds	r3, #2
     826:	b2d8      	uxtb	r0, r3
     828:	230d      	movs	r3, #13
     82a:	18fb      	adds	r3, r7, r3
     82c:	781b      	ldrb	r3, [r3, #0]
     82e:	3305      	adds	r3, #5
     830:	b2d9      	uxtb	r1, r3
     832:	230e      	movs	r3, #14
     834:	18fb      	adds	r3, r7, r3
     836:	781b      	ldrb	r3, [r3, #0]
     838:	3b02      	subs	r3, #2
     83a:	b2da      	uxtb	r2, r3
     83c:	230d      	movs	r3, #13
     83e:	18fb      	adds	r3, r7, r3
     840:	781b      	ldrb	r3, [r3, #0]
     842:	3305      	adds	r3, #5
     844:	b2dc      	uxtb	r4, r3
     846:	2301      	movs	r3, #1
     848:	9300      	str	r3, [sp, #0]
     84a:	0023      	movs	r3, r4
     84c:	4c58      	ldr	r4, [pc, #352]	; (9b0 <STACK_SIZE+0x1b0>)
     84e:	47a0      	blx	r4
     850:	e0a7      	b.n	9a2 <STACK_SIZE+0x1a2>
	}
	else
	{
		OLED_line(x0,y0,x1,y0,1);
     852:	230d      	movs	r3, #13
     854:	18fb      	adds	r3, r7, r3
     856:	781c      	ldrb	r4, [r3, #0]
     858:	230e      	movs	r3, #14
     85a:	18fb      	adds	r3, r7, r3
     85c:	781a      	ldrb	r2, [r3, #0]
     85e:	230d      	movs	r3, #13
     860:	18fb      	adds	r3, r7, r3
     862:	7819      	ldrb	r1, [r3, #0]
     864:	230f      	movs	r3, #15
     866:	18fb      	adds	r3, r7, r3
     868:	7818      	ldrb	r0, [r3, #0]
     86a:	2301      	movs	r3, #1
     86c:	9300      	str	r3, [sp, #0]
     86e:	0023      	movs	r3, r4
     870:	4c4f      	ldr	r4, [pc, #316]	; (9b0 <STACK_SIZE+0x1b0>)
     872:	47a0      	blx	r4
		OLED_line(x1,y0,x1,y1,1);
     874:	230c      	movs	r3, #12
     876:	18fb      	adds	r3, r7, r3
     878:	781c      	ldrb	r4, [r3, #0]
     87a:	230e      	movs	r3, #14
     87c:	18fb      	adds	r3, r7, r3
     87e:	781a      	ldrb	r2, [r3, #0]
     880:	230d      	movs	r3, #13
     882:	18fb      	adds	r3, r7, r3
     884:	7819      	ldrb	r1, [r3, #0]
     886:	230e      	movs	r3, #14
     888:	18fb      	adds	r3, r7, r3
     88a:	7818      	ldrb	r0, [r3, #0]
     88c:	2301      	movs	r3, #1
     88e:	9300      	str	r3, [sp, #0]
     890:	0023      	movs	r3, r4
     892:	4c47      	ldr	r4, [pc, #284]	; (9b0 <STACK_SIZE+0x1b0>)
     894:	47a0      	blx	r4
		OLED_line(x1,y1,x0,y1,1);
     896:	230c      	movs	r3, #12
     898:	18fb      	adds	r3, r7, r3
     89a:	781c      	ldrb	r4, [r3, #0]
     89c:	230f      	movs	r3, #15
     89e:	18fb      	adds	r3, r7, r3
     8a0:	781a      	ldrb	r2, [r3, #0]
     8a2:	230c      	movs	r3, #12
     8a4:	18fb      	adds	r3, r7, r3
     8a6:	7819      	ldrb	r1, [r3, #0]
     8a8:	230e      	movs	r3, #14
     8aa:	18fb      	adds	r3, r7, r3
     8ac:	7818      	ldrb	r0, [r3, #0]
     8ae:	2301      	movs	r3, #1
     8b0:	9300      	str	r3, [sp, #0]
     8b2:	0023      	movs	r3, r4
     8b4:	4c3e      	ldr	r4, [pc, #248]	; (9b0 <STACK_SIZE+0x1b0>)
     8b6:	47a0      	blx	r4
		OLED_line(x0,y1,x0,y0,1);
     8b8:	230d      	movs	r3, #13
     8ba:	18fb      	adds	r3, r7, r3
     8bc:	781c      	ldrb	r4, [r3, #0]
     8be:	230f      	movs	r3, #15
     8c0:	18fb      	adds	r3, r7, r3
     8c2:	781a      	ldrb	r2, [r3, #0]
     8c4:	230c      	movs	r3, #12
     8c6:	18fb      	adds	r3, r7, r3
     8c8:	7819      	ldrb	r1, [r3, #0]
     8ca:	230f      	movs	r3, #15
     8cc:	18fb      	adds	r3, r7, r3
     8ce:	7818      	ldrb	r0, [r3, #0]
     8d0:	2301      	movs	r3, #1
     8d2:	9300      	str	r3, [sp, #0]
     8d4:	0023      	movs	r3, r4
     8d6:	4c36      	ldr	r4, [pc, #216]	; (9b0 <STACK_SIZE+0x1b0>)
     8d8:	47a0      	blx	r4
		OLED_line(x0+2,y0+2,x1-2,y0+2,0);
     8da:	230f      	movs	r3, #15
     8dc:	18fb      	adds	r3, r7, r3
     8de:	781b      	ldrb	r3, [r3, #0]
     8e0:	3302      	adds	r3, #2
     8e2:	b2d8      	uxtb	r0, r3
     8e4:	230d      	movs	r3, #13
     8e6:	18fb      	adds	r3, r7, r3
     8e8:	781b      	ldrb	r3, [r3, #0]
     8ea:	3302      	adds	r3, #2
     8ec:	b2d9      	uxtb	r1, r3
     8ee:	230e      	movs	r3, #14
     8f0:	18fb      	adds	r3, r7, r3
     8f2:	781b      	ldrb	r3, [r3, #0]
     8f4:	3b02      	subs	r3, #2
     8f6:	b2da      	uxtb	r2, r3
     8f8:	230d      	movs	r3, #13
     8fa:	18fb      	adds	r3, r7, r3
     8fc:	781b      	ldrb	r3, [r3, #0]
     8fe:	3302      	adds	r3, #2
     900:	b2dc      	uxtb	r4, r3
     902:	2300      	movs	r3, #0
     904:	9300      	str	r3, [sp, #0]
     906:	0023      	movs	r3, r4
     908:	4c29      	ldr	r4, [pc, #164]	; (9b0 <STACK_SIZE+0x1b0>)
     90a:	47a0      	blx	r4
		OLED_line(x0+2,y0+3,x1-2,y0+3,0);
     90c:	230f      	movs	r3, #15
     90e:	18fb      	adds	r3, r7, r3
     910:	781b      	ldrb	r3, [r3, #0]
     912:	3302      	adds	r3, #2
     914:	b2d8      	uxtb	r0, r3
     916:	230d      	movs	r3, #13
     918:	18fb      	adds	r3, r7, r3
     91a:	781b      	ldrb	r3, [r3, #0]
     91c:	3303      	adds	r3, #3
     91e:	b2d9      	uxtb	r1, r3
     920:	230e      	movs	r3, #14
     922:	18fb      	adds	r3, r7, r3
     924:	781b      	ldrb	r3, [r3, #0]
     926:	3b02      	subs	r3, #2
     928:	b2da      	uxtb	r2, r3
     92a:	230d      	movs	r3, #13
     92c:	18fb      	adds	r3, r7, r3
     92e:	781b      	ldrb	r3, [r3, #0]
     930:	3303      	adds	r3, #3
     932:	b2dc      	uxtb	r4, r3
     934:	2300      	movs	r3, #0
     936:	9300      	str	r3, [sp, #0]
     938:	0023      	movs	r3, r4
     93a:	4c1d      	ldr	r4, [pc, #116]	; (9b0 <STACK_SIZE+0x1b0>)
     93c:	47a0      	blx	r4
		OLED_line(x0+2,y0+4,x1-2,y0+4,0);
     93e:	230f      	movs	r3, #15
     940:	18fb      	adds	r3, r7, r3
     942:	781b      	ldrb	r3, [r3, #0]
     944:	3302      	adds	r3, #2
     946:	b2d8      	uxtb	r0, r3
     948:	230d      	movs	r3, #13
     94a:	18fb      	adds	r3, r7, r3
     94c:	781b      	ldrb	r3, [r3, #0]
     94e:	3304      	adds	r3, #4
     950:	b2d9      	uxtb	r1, r3
     952:	230e      	movs	r3, #14
     954:	18fb      	adds	r3, r7, r3
     956:	781b      	ldrb	r3, [r3, #0]
     958:	3b02      	subs	r3, #2
     95a:	b2da      	uxtb	r2, r3
     95c:	230d      	movs	r3, #13
     95e:	18fb      	adds	r3, r7, r3
     960:	781b      	ldrb	r3, [r3, #0]
     962:	3304      	adds	r3, #4
     964:	b2dc      	uxtb	r4, r3
     966:	2300      	movs	r3, #0
     968:	9300      	str	r3, [sp, #0]
     96a:	0023      	movs	r3, r4
     96c:	4c10      	ldr	r4, [pc, #64]	; (9b0 <STACK_SIZE+0x1b0>)
     96e:	47a0      	blx	r4
		OLED_line(x0+2,y0+5,x1-2,y0+5,0);
     970:	230f      	movs	r3, #15
     972:	18fb      	adds	r3, r7, r3
     974:	781b      	ldrb	r3, [r3, #0]
     976:	3302      	adds	r3, #2
     978:	b2d8      	uxtb	r0, r3
     97a:	230d      	movs	r3, #13
     97c:	18fb      	adds	r3, r7, r3
     97e:	781b      	ldrb	r3, [r3, #0]
     980:	3305      	adds	r3, #5
     982:	b2d9      	uxtb	r1, r3
     984:	230e      	movs	r3, #14
     986:	18fb      	adds	r3, r7, r3
     988:	781b      	ldrb	r3, [r3, #0]
     98a:	3b02      	subs	r3, #2
     98c:	b2da      	uxtb	r2, r3
     98e:	230d      	movs	r3, #13
     990:	18fb      	adds	r3, r7, r3
     992:	781b      	ldrb	r3, [r3, #0]
     994:	3305      	adds	r3, #5
     996:	b2dc      	uxtb	r4, r3
     998:	2300      	movs	r3, #0
     99a:	9300      	str	r3, [sp, #0]
     99c:	0023      	movs	r3, r4
     99e:	4c04      	ldr	r4, [pc, #16]	; (9b0 <STACK_SIZE+0x1b0>)
     9a0:	47a0      	blx	r4
	}
	OLED_UPDATE();
     9a2:	4b04      	ldr	r3, [pc, #16]	; (9b4 <STACK_SIZE+0x1b4>)
     9a4:	4798      	blx	r3
}
     9a6:	46c0      	nop			; (mov r8, r8)
     9a8:	46bd      	mov	sp, r7
     9aa:	b005      	add	sp, #20
     9ac:	bd90      	pop	{r4, r7, pc}
     9ae:	46c0      	nop			; (mov r8, r8)
     9b0:	00000a01 	.word	0x00000a01
     9b4:	00000c75 	.word	0x00000c75

000009b8 <configure_i2c_master>:
void configure_i2c_master(void)
{
     9b8:	b580      	push	{r7, lr}
     9ba:	b08e      	sub	sp, #56	; 0x38
     9bc:	af00      	add	r7, sp, #0
	struct i2c_master_config config_i2c_master;
	i2c_master_get_config_defaults(&config_i2c_master);
     9be:	1d3b      	adds	r3, r7, #4
     9c0:	0018      	movs	r0, r3
     9c2:	4b0a      	ldr	r3, [pc, #40]	; (9ec <configure_i2c_master+0x34>)
     9c4:	4798      	blx	r3
	config_i2c_master.buffer_timeout = 1000;
     9c6:	1d3b      	adds	r3, r7, #4
     9c8:	22fa      	movs	r2, #250	; 0xfa
     9ca:	0092      	lsls	r2, r2, #2
     9cc:	82da      	strh	r2, [r3, #22]
	i2c_master_init(&i2c_master_instance, CONF_I2C_MASTER_MODULE, &config_i2c_master);
     9ce:	1d3a      	adds	r2, r7, #4
     9d0:	4907      	ldr	r1, [pc, #28]	; (9f0 <configure_i2c_master+0x38>)
     9d2:	4b08      	ldr	r3, [pc, #32]	; (9f4 <configure_i2c_master+0x3c>)
     9d4:	0018      	movs	r0, r3
     9d6:	4b08      	ldr	r3, [pc, #32]	; (9f8 <configure_i2c_master+0x40>)
     9d8:	4798      	blx	r3
	i2c_master_enable(&i2c_master_instance);
     9da:	4b06      	ldr	r3, [pc, #24]	; (9f4 <configure_i2c_master+0x3c>)
     9dc:	0018      	movs	r0, r3
     9de:	4b07      	ldr	r3, [pc, #28]	; (9fc <configure_i2c_master+0x44>)
     9e0:	4798      	blx	r3
}
     9e2:	46c0      	nop			; (mov r8, r8)
     9e4:	46bd      	mov	sp, r7
     9e6:	b00e      	add	sp, #56	; 0x38
     9e8:	bd80      	pop	{r7, pc}
     9ea:	46c0      	nop			; (mov r8, r8)
     9ec:	0000015d 	.word	0x0000015d
     9f0:	42001000 	.word	0x42001000
     9f4:	200006ec 	.word	0x200006ec
     9f8:	00002b5d 	.word	0x00002b5d
     9fc:	000001e1 	.word	0x000001e1

00000a00 <OLED_line>:
void OLED_line(uint8_t xx1, uint8_t yy1, uint8_t xx2, uint8_t yy2,bool pixel_on)
{
     a00:	b5b0      	push	{r4, r5, r7, lr}
     a02:	b088      	sub	sp, #32
     a04:	af00      	add	r7, sp, #0
     a06:	0005      	movs	r5, r0
     a08:	000c      	movs	r4, r1
     a0a:	0010      	movs	r0, r2
     a0c:	0019      	movs	r1, r3
     a0e:	1dfb      	adds	r3, r7, #7
     a10:	1c2a      	adds	r2, r5, #0
     a12:	701a      	strb	r2, [r3, #0]
     a14:	1dbb      	adds	r3, r7, #6
     a16:	1c22      	adds	r2, r4, #0
     a18:	701a      	strb	r2, [r3, #0]
     a1a:	1d7b      	adds	r3, r7, #5
     a1c:	1c02      	adds	r2, r0, #0
     a1e:	701a      	strb	r2, [r3, #0]
     a20:	1d3b      	adds	r3, r7, #4
     a22:	1c0a      	adds	r2, r1, #0
     a24:	701a      	strb	r2, [r3, #0]
	uint8_t x=0;
     a26:	231f      	movs	r3, #31
     a28:	18fb      	adds	r3, r7, r3
     a2a:	2200      	movs	r2, #0
     a2c:	701a      	strb	r2, [r3, #0]
	uint8_t y=0;
     a2e:	231e      	movs	r3, #30
     a30:	18fb      	adds	r3, r7, r3
     a32:	2200      	movs	r2, #0
     a34:	701a      	strb	r2, [r3, #0]
	uint8_t tmp_hold=0;
     a36:	2317      	movs	r3, #23
     a38:	18fb      	adds	r3, r7, r3
     a3a:	2200      	movs	r2, #0
     a3c:	701a      	strb	r2, [r3, #0]
	float dx=0;
     a3e:	2300      	movs	r3, #0
     a40:	613b      	str	r3, [r7, #16]
	float dy=0;
     a42:	2300      	movs	r3, #0
     a44:	60fb      	str	r3, [r7, #12]
	float slope=0;
     a46:	2300      	movs	r3, #0
     a48:	61bb      	str	r3, [r7, #24]
	float y_fl=0;
     a4a:	2300      	movs	r3, #0
     a4c:	60bb      	str	r3, [r7, #8]
	// change coordinates to that the line always runs from left to right (up or down)
	if (xx1>xx2)
     a4e:	1dfa      	adds	r2, r7, #7
     a50:	1d7b      	adds	r3, r7, #5
     a52:	7812      	ldrb	r2, [r2, #0]
     a54:	781b      	ldrb	r3, [r3, #0]
     a56:	429a      	cmp	r2, r3
     a58:	d91b      	bls.n	a92 <OLED_line+0x92>
	{
		tmp_hold=xx1;xx1=xx2;xx2=tmp_hold;
     a5a:	2317      	movs	r3, #23
     a5c:	18fb      	adds	r3, r7, r3
     a5e:	1dfa      	adds	r2, r7, #7
     a60:	7812      	ldrb	r2, [r2, #0]
     a62:	701a      	strb	r2, [r3, #0]
     a64:	1dfb      	adds	r3, r7, #7
     a66:	1d7a      	adds	r2, r7, #5
     a68:	7812      	ldrb	r2, [r2, #0]
     a6a:	701a      	strb	r2, [r3, #0]
     a6c:	1d7b      	adds	r3, r7, #5
     a6e:	2217      	movs	r2, #23
     a70:	18ba      	adds	r2, r7, r2
     a72:	7812      	ldrb	r2, [r2, #0]
     a74:	701a      	strb	r2, [r3, #0]
		tmp_hold=yy1;yy1=yy2;yy2=tmp_hold;
     a76:	2317      	movs	r3, #23
     a78:	18fb      	adds	r3, r7, r3
     a7a:	1dba      	adds	r2, r7, #6
     a7c:	7812      	ldrb	r2, [r2, #0]
     a7e:	701a      	strb	r2, [r3, #0]
     a80:	1dbb      	adds	r3, r7, #6
     a82:	1d3a      	adds	r2, r7, #4
     a84:	7812      	ldrb	r2, [r2, #0]
     a86:	701a      	strb	r2, [r3, #0]
     a88:	1d3b      	adds	r3, r7, #4
     a8a:	2217      	movs	r2, #23
     a8c:	18ba      	adds	r2, r7, r2
     a8e:	7812      	ldrb	r2, [r2, #0]
     a90:	701a      	strb	r2, [r3, #0]
	}
	
	dx=xx2-xx1;
     a92:	1d7b      	adds	r3, r7, #5
     a94:	781a      	ldrb	r2, [r3, #0]
     a96:	1dfb      	adds	r3, r7, #7
     a98:	781b      	ldrb	r3, [r3, #0]
     a9a:	1ad2      	subs	r2, r2, r3
     a9c:	4b6b      	ldr	r3, [pc, #428]	; (c4c <OLED_line+0x24c>)
     a9e:	0010      	movs	r0, r2
     aa0:	4798      	blx	r3
     aa2:	1c03      	adds	r3, r0, #0
     aa4:	613b      	str	r3, [r7, #16]
	dy=yy2-yy1;
     aa6:	1d3b      	adds	r3, r7, #4
     aa8:	781a      	ldrb	r2, [r3, #0]
     aaa:	1dbb      	adds	r3, r7, #6
     aac:	781b      	ldrb	r3, [r3, #0]
     aae:	1ad2      	subs	r2, r2, r3
     ab0:	4b66      	ldr	r3, [pc, #408]	; (c4c <OLED_line+0x24c>)
     ab2:	0010      	movs	r0, r2
     ab4:	4798      	blx	r3
     ab6:	1c03      	adds	r3, r0, #0
     ab8:	60fb      	str	r3, [r7, #12]
	slope=dy/dx;
     aba:	4b65      	ldr	r3, [pc, #404]	; (c50 <OLED_line+0x250>)
     abc:	6939      	ldr	r1, [r7, #16]
     abe:	68f8      	ldr	r0, [r7, #12]
     ac0:	4798      	blx	r3
     ac2:	1c03      	adds	r3, r0, #0
     ac4:	61bb      	str	r3, [r7, #24]
	if ((slope<=1)&&(slope>=-1)) //count with X
     ac6:	4b63      	ldr	r3, [pc, #396]	; (c54 <OLED_line+0x254>)
     ac8:	21fe      	movs	r1, #254	; 0xfe
     aca:	0589      	lsls	r1, r1, #22
     acc:	69b8      	ldr	r0, [r7, #24]
     ace:	4798      	blx	r3
     ad0:	1e03      	subs	r3, r0, #0
     ad2:	d049      	beq.n	b68 <OLED_line+0x168>
     ad4:	4b60      	ldr	r3, [pc, #384]	; (c58 <OLED_line+0x258>)
     ad6:	4961      	ldr	r1, [pc, #388]	; (c5c <OLED_line+0x25c>)
     ad8:	69b8      	ldr	r0, [r7, #24]
     ada:	4798      	blx	r3
     adc:	1e03      	subs	r3, r0, #0
     ade:	d043      	beq.n	b68 <OLED_line+0x168>
	{
		for (x=xx1;x<=xx2;x++)
     ae0:	231f      	movs	r3, #31
     ae2:	18fb      	adds	r3, r7, r3
     ae4:	1dfa      	adds	r2, r7, #7
     ae6:	7812      	ldrb	r2, [r2, #0]
     ae8:	701a      	strb	r2, [r3, #0]
     aea:	e035      	b.n	b58 <OLED_line+0x158>
		{
			y_fl=yy1+((x-xx1)*slope);
     aec:	1dbb      	adds	r3, r7, #6
     aee:	781a      	ldrb	r2, [r3, #0]
     af0:	4b56      	ldr	r3, [pc, #344]	; (c4c <OLED_line+0x24c>)
     af2:	0010      	movs	r0, r2
     af4:	4798      	blx	r3
     af6:	1c04      	adds	r4, r0, #0
     af8:	231f      	movs	r3, #31
     afa:	18fb      	adds	r3, r7, r3
     afc:	781a      	ldrb	r2, [r3, #0]
     afe:	1dfb      	adds	r3, r7, #7
     b00:	781b      	ldrb	r3, [r3, #0]
     b02:	1ad2      	subs	r2, r2, r3
     b04:	4b51      	ldr	r3, [pc, #324]	; (c4c <OLED_line+0x24c>)
     b06:	0010      	movs	r0, r2
     b08:	4798      	blx	r3
     b0a:	1c02      	adds	r2, r0, #0
     b0c:	4b54      	ldr	r3, [pc, #336]	; (c60 <OLED_line+0x260>)
     b0e:	69b9      	ldr	r1, [r7, #24]
     b10:	1c10      	adds	r0, r2, #0
     b12:	4798      	blx	r3
     b14:	1c03      	adds	r3, r0, #0
     b16:	1c1a      	adds	r2, r3, #0
     b18:	4b52      	ldr	r3, [pc, #328]	; (c64 <OLED_line+0x264>)
     b1a:	1c11      	adds	r1, r2, #0
     b1c:	1c20      	adds	r0, r4, #0
     b1e:	4798      	blx	r3
     b20:	1c03      	adds	r3, r0, #0
     b22:	60bb      	str	r3, [r7, #8]
			y=(int)(y_fl);
     b24:	4b50      	ldr	r3, [pc, #320]	; (c68 <OLED_line+0x268>)
     b26:	68b8      	ldr	r0, [r7, #8]
     b28:	4798      	blx	r3
     b2a:	0002      	movs	r2, r0
     b2c:	231e      	movs	r3, #30
     b2e:	18fb      	adds	r3, r7, r3
     b30:	701a      	strb	r2, [r3, #0]
			put_pixel(x,y,pixel_on);
     b32:	2330      	movs	r3, #48	; 0x30
     b34:	18fb      	adds	r3, r7, r3
     b36:	781a      	ldrb	r2, [r3, #0]
     b38:	231e      	movs	r3, #30
     b3a:	18fb      	adds	r3, r7, r3
     b3c:	7819      	ldrb	r1, [r3, #0]
     b3e:	231f      	movs	r3, #31
     b40:	18fb      	adds	r3, r7, r3
     b42:	781b      	ldrb	r3, [r3, #0]
     b44:	0018      	movs	r0, r3
     b46:	4b49      	ldr	r3, [pc, #292]	; (c6c <OLED_line+0x26c>)
     b48:	4798      	blx	r3
	dx=xx2-xx1;
	dy=yy2-yy1;
	slope=dy/dx;
	if ((slope<=1)&&(slope>=-1)) //count with X
	{
		for (x=xx1;x<=xx2;x++)
     b4a:	231f      	movs	r3, #31
     b4c:	18fb      	adds	r3, r7, r3
     b4e:	781a      	ldrb	r2, [r3, #0]
     b50:	231f      	movs	r3, #31
     b52:	18fb      	adds	r3, r7, r3
     b54:	3201      	adds	r2, #1
     b56:	701a      	strb	r2, [r3, #0]
     b58:	231f      	movs	r3, #31
     b5a:	18fa      	adds	r2, r7, r3
     b5c:	1d7b      	adds	r3, r7, #5
     b5e:	7812      	ldrb	r2, [r2, #0]
     b60:	781b      	ldrb	r3, [r3, #0]
     b62:	429a      	cmp	r2, r3
     b64:	d9c2      	bls.n	aec <OLED_line+0xec>
	}
	
	dx=xx2-xx1;
	dy=yy2-yy1;
	slope=dy/dx;
	if ((slope<=1)&&(slope>=-1)) //count with X
     b66:	e06b      	b.n	c40 <OLED_line+0x240>
			put_pixel(x,y,pixel_on);
		}
	}
	else  //count with y
	{
		if (yy1>yy2)
     b68:	1dba      	adds	r2, r7, #6
     b6a:	1d3b      	adds	r3, r7, #4
     b6c:	7812      	ldrb	r2, [r2, #0]
     b6e:	781b      	ldrb	r3, [r3, #0]
     b70:	429a      	cmp	r2, r3
     b72:	d91b      	bls.n	bac <OLED_line+0x1ac>
		{
			tmp_hold=xx1;
     b74:	2317      	movs	r3, #23
     b76:	18fb      	adds	r3, r7, r3
     b78:	1dfa      	adds	r2, r7, #7
     b7a:	7812      	ldrb	r2, [r2, #0]
     b7c:	701a      	strb	r2, [r3, #0]
			xx1=xx2;
     b7e:	1dfb      	adds	r3, r7, #7
     b80:	1d7a      	adds	r2, r7, #5
     b82:	7812      	ldrb	r2, [r2, #0]
     b84:	701a      	strb	r2, [r3, #0]
			xx2=tmp_hold;
     b86:	1d7b      	adds	r3, r7, #5
     b88:	2217      	movs	r2, #23
     b8a:	18ba      	adds	r2, r7, r2
     b8c:	7812      	ldrb	r2, [r2, #0]
     b8e:	701a      	strb	r2, [r3, #0]
			tmp_hold=yy1;
     b90:	2317      	movs	r3, #23
     b92:	18fb      	adds	r3, r7, r3
     b94:	1dba      	adds	r2, r7, #6
     b96:	7812      	ldrb	r2, [r2, #0]
     b98:	701a      	strb	r2, [r3, #0]
			yy1=yy2;
     b9a:	1dbb      	adds	r3, r7, #6
     b9c:	1d3a      	adds	r2, r7, #4
     b9e:	7812      	ldrb	r2, [r2, #0]
     ba0:	701a      	strb	r2, [r3, #0]
			yy2=tmp_hold;
     ba2:	1d3b      	adds	r3, r7, #4
     ba4:	2217      	movs	r2, #23
     ba6:	18ba      	adds	r2, r7, r2
     ba8:	7812      	ldrb	r2, [r2, #0]
     baa:	701a      	strb	r2, [r3, #0]
			slope=slope*1;
		}
		slope=1/slope;
     bac:	4b28      	ldr	r3, [pc, #160]	; (c50 <OLED_line+0x250>)
     bae:	69b9      	ldr	r1, [r7, #24]
     bb0:	20fe      	movs	r0, #254	; 0xfe
     bb2:	0580      	lsls	r0, r0, #22
     bb4:	4798      	blx	r3
     bb6:	1c03      	adds	r3, r0, #0
     bb8:	61bb      	str	r3, [r7, #24]
		for (y=yy1;y<=yy2;y++)
     bba:	231e      	movs	r3, #30
     bbc:	18fb      	adds	r3, r7, r3
     bbe:	1dba      	adds	r2, r7, #6
     bc0:	7812      	ldrb	r2, [r2, #0]
     bc2:	701a      	strb	r2, [r3, #0]
     bc4:	e035      	b.n	c32 <OLED_line+0x232>
		{
			y_fl=xx1+((y-yy1)*slope);
     bc6:	1dfb      	adds	r3, r7, #7
     bc8:	781a      	ldrb	r2, [r3, #0]
     bca:	4b20      	ldr	r3, [pc, #128]	; (c4c <OLED_line+0x24c>)
     bcc:	0010      	movs	r0, r2
     bce:	4798      	blx	r3
     bd0:	1c04      	adds	r4, r0, #0
     bd2:	231e      	movs	r3, #30
     bd4:	18fb      	adds	r3, r7, r3
     bd6:	781a      	ldrb	r2, [r3, #0]
     bd8:	1dbb      	adds	r3, r7, #6
     bda:	781b      	ldrb	r3, [r3, #0]
     bdc:	1ad2      	subs	r2, r2, r3
     bde:	4b1b      	ldr	r3, [pc, #108]	; (c4c <OLED_line+0x24c>)
     be0:	0010      	movs	r0, r2
     be2:	4798      	blx	r3
     be4:	1c02      	adds	r2, r0, #0
     be6:	4b1e      	ldr	r3, [pc, #120]	; (c60 <OLED_line+0x260>)
     be8:	69b9      	ldr	r1, [r7, #24]
     bea:	1c10      	adds	r0, r2, #0
     bec:	4798      	blx	r3
     bee:	1c03      	adds	r3, r0, #0
     bf0:	1c1a      	adds	r2, r3, #0
     bf2:	4b1c      	ldr	r3, [pc, #112]	; (c64 <OLED_line+0x264>)
     bf4:	1c11      	adds	r1, r2, #0
     bf6:	1c20      	adds	r0, r4, #0
     bf8:	4798      	blx	r3
     bfa:	1c03      	adds	r3, r0, #0
     bfc:	60bb      	str	r3, [r7, #8]
			x=(int)(y_fl);
     bfe:	4b1a      	ldr	r3, [pc, #104]	; (c68 <OLED_line+0x268>)
     c00:	68b8      	ldr	r0, [r7, #8]
     c02:	4798      	blx	r3
     c04:	0002      	movs	r2, r0
     c06:	231f      	movs	r3, #31
     c08:	18fb      	adds	r3, r7, r3
     c0a:	701a      	strb	r2, [r3, #0]
			put_pixel(x,y,pixel_on);
     c0c:	2330      	movs	r3, #48	; 0x30
     c0e:	18fb      	adds	r3, r7, r3
     c10:	781a      	ldrb	r2, [r3, #0]
     c12:	231e      	movs	r3, #30
     c14:	18fb      	adds	r3, r7, r3
     c16:	7819      	ldrb	r1, [r3, #0]
     c18:	231f      	movs	r3, #31
     c1a:	18fb      	adds	r3, r7, r3
     c1c:	781b      	ldrb	r3, [r3, #0]
     c1e:	0018      	movs	r0, r3
     c20:	4b12      	ldr	r3, [pc, #72]	; (c6c <OLED_line+0x26c>)
     c22:	4798      	blx	r3
			yy1=yy2;
			yy2=tmp_hold;
			slope=slope*1;
		}
		slope=1/slope;
		for (y=yy1;y<=yy2;y++)
     c24:	231e      	movs	r3, #30
     c26:	18fb      	adds	r3, r7, r3
     c28:	781a      	ldrb	r2, [r3, #0]
     c2a:	231e      	movs	r3, #30
     c2c:	18fb      	adds	r3, r7, r3
     c2e:	3201      	adds	r2, #1
     c30:	701a      	strb	r2, [r3, #0]
     c32:	231e      	movs	r3, #30
     c34:	18fa      	adds	r2, r7, r3
     c36:	1d3b      	adds	r3, r7, #4
     c38:	7812      	ldrb	r2, [r2, #0]
     c3a:	781b      	ldrb	r3, [r3, #0]
     c3c:	429a      	cmp	r2, r3
     c3e:	d9c2      	bls.n	bc6 <OLED_line+0x1c6>
			y_fl=xx1+((y-yy1)*slope);
			x=(int)(y_fl);
			put_pixel(x,y,pixel_on);
		}
	}
	OLED_UPDATE();
     c40:	4b0b      	ldr	r3, [pc, #44]	; (c70 <OLED_line+0x270>)
     c42:	4798      	blx	r3
}
     c44:	46c0      	nop			; (mov r8, r8)
     c46:	46bd      	mov	sp, r7
     c48:	b008      	add	sp, #32
     c4a:	bdb0      	pop	{r4, r5, r7, pc}
     c4c:	0000468d 	.word	0x0000468d
     c50:	00003d81 	.word	0x00003d81
     c54:	00003a29 	.word	0x00003a29
     c58:	00003a51 	.word	0x00003a51
     c5c:	bf800000 	.word	0xbf800000
     c60:	00004115 	.word	0x00004115
     c64:	00003a95 	.word	0x00003a95
     c68:	00004649 	.word	0x00004649
     c6c:	00000509 	.word	0x00000509
     c70:	00000c75 	.word	0x00000c75

00000c74 <OLED_UPDATE>:

void OLED_UPDATE(void)
{
     c74:	b580      	push	{r7, lr}
     c76:	b082      	sub	sp, #8
     c78:	af00      	add	r7, sp, #0
	uint8_t cnt_loc=0;
     c7a:	1dfb      	adds	r3, r7, #7
     c7c:	2200      	movs	r2, #0
     c7e:	701a      	strb	r2, [r3, #0]
	uint8_t x_offset=1;
     c80:	1dbb      	adds	r3, r7, #6
     c82:	2201      	movs	r2, #1
     c84:	701a      	strb	r2, [r3, #0]
	if (pageflag==0)
     c86:	4b28      	ldr	r3, [pc, #160]	; (d28 <OLED_UPDATE+0xb4>)
     c88:	781b      	ldrb	r3, [r3, #0]
     c8a:	2b00      	cmp	r3, #0
     c8c:	d147      	bne.n	d1e <OLED_UPDATE+0xaa>
	{
		for (page=0;page<8;page++)
     c8e:	4b27      	ldr	r3, [pc, #156]	; (d2c <OLED_UPDATE+0xb8>)
     c90:	2200      	movs	r2, #0
     c92:	701a      	strb	r2, [r3, #0]
     c94:	e03f      	b.n	d16 <OLED_UPDATE+0xa2>
		{
			command_buffer[0]=0x00;
     c96:	4b26      	ldr	r3, [pc, #152]	; (d30 <OLED_UPDATE+0xbc>)
     c98:	2200      	movs	r2, #0
     c9a:	701a      	strb	r2, [r3, #0]
			command_buffer[1]=0x02; //column lower bit
     c9c:	4b24      	ldr	r3, [pc, #144]	; (d30 <OLED_UPDATE+0xbc>)
     c9e:	2202      	movs	r2, #2
     ca0:	705a      	strb	r2, [r3, #1]
			command_buffer[2]=0x10; //column upper bit
     ca2:	4b23      	ldr	r3, [pc, #140]	; (d30 <OLED_UPDATE+0xbc>)
     ca4:	2210      	movs	r2, #16
     ca6:	709a      	strb	r2, [r3, #2]
			command_buffer[3]=0xB0+page;
     ca8:	4b20      	ldr	r3, [pc, #128]	; (d2c <OLED_UPDATE+0xb8>)
     caa:	781b      	ldrb	r3, [r3, #0]
     cac:	3b50      	subs	r3, #80	; 0x50
     cae:	b2da      	uxtb	r2, r3
     cb0:	4b1f      	ldr	r3, [pc, #124]	; (d30 <OLED_UPDATE+0xbc>)
     cb2:	70da      	strb	r2, [r3, #3]
			OLED_data_packet(command_buffer,4);
     cb4:	4b1e      	ldr	r3, [pc, #120]	; (d30 <OLED_UPDATE+0xbc>)
     cb6:	2104      	movs	r1, #4
     cb8:	0018      	movs	r0, r3
     cba:	4b1e      	ldr	r3, [pc, #120]	; (d34 <OLED_UPDATE+0xc0>)
     cbc:	4798      	blx	r3
			for (cnt_loc=0;cnt_loc<128;cnt_loc++)
     cbe:	1dfb      	adds	r3, r7, #7
     cc0:	2200      	movs	r2, #0
     cc2:	701a      	strb	r2, [r3, #0]
     cc4:	e014      	b.n	cf0 <OLED_UPDATE+0x7c>
			screen_buffer[cnt_loc+x_offset]=screen[cnt_loc][page];
     cc6:	1dfb      	adds	r3, r7, #7
     cc8:	781a      	ldrb	r2, [r3, #0]
     cca:	1dbb      	adds	r3, r7, #6
     ccc:	781b      	ldrb	r3, [r3, #0]
     cce:	18d3      	adds	r3, r2, r3
     cd0:	1dfa      	adds	r2, r7, #7
     cd2:	7812      	ldrb	r2, [r2, #0]
     cd4:	4915      	ldr	r1, [pc, #84]	; (d2c <OLED_UPDATE+0xb8>)
     cd6:	7809      	ldrb	r1, [r1, #0]
     cd8:	0008      	movs	r0, r1
     cda:	4917      	ldr	r1, [pc, #92]	; (d38 <OLED_UPDATE+0xc4>)
     cdc:	00d2      	lsls	r2, r2, #3
     cde:	188a      	adds	r2, r1, r2
     ce0:	5c11      	ldrb	r1, [r2, r0]
     ce2:	4a16      	ldr	r2, [pc, #88]	; (d3c <OLED_UPDATE+0xc8>)
     ce4:	54d1      	strb	r1, [r2, r3]
			command_buffer[0]=0x00;
			command_buffer[1]=0x02; //column lower bit
			command_buffer[2]=0x10; //column upper bit
			command_buffer[3]=0xB0+page;
			OLED_data_packet(command_buffer,4);
			for (cnt_loc=0;cnt_loc<128;cnt_loc++)
     ce6:	1dfb      	adds	r3, r7, #7
     ce8:	781a      	ldrb	r2, [r3, #0]
     cea:	1dfb      	adds	r3, r7, #7
     cec:	3201      	adds	r2, #1
     cee:	701a      	strb	r2, [r3, #0]
     cf0:	1dfb      	adds	r3, r7, #7
     cf2:	781b      	ldrb	r3, [r3, #0]
     cf4:	b25b      	sxtb	r3, r3
     cf6:	2b00      	cmp	r3, #0
     cf8:	dae5      	bge.n	cc6 <OLED_UPDATE+0x52>
			screen_buffer[cnt_loc+x_offset]=screen[cnt_loc][page];
			screen_buffer[0]=0x40;
     cfa:	4b10      	ldr	r3, [pc, #64]	; (d3c <OLED_UPDATE+0xc8>)
     cfc:	2240      	movs	r2, #64	; 0x40
     cfe:	701a      	strb	r2, [r3, #0]
			OLED_data_packet(screen_buffer,129);
     d00:	4b0e      	ldr	r3, [pc, #56]	; (d3c <OLED_UPDATE+0xc8>)
     d02:	2181      	movs	r1, #129	; 0x81
     d04:	0018      	movs	r0, r3
     d06:	4b0b      	ldr	r3, [pc, #44]	; (d34 <OLED_UPDATE+0xc0>)
     d08:	4798      	blx	r3
{
	uint8_t cnt_loc=0;
	uint8_t x_offset=1;
	if (pageflag==0)
	{
		for (page=0;page<8;page++)
     d0a:	4b08      	ldr	r3, [pc, #32]	; (d2c <OLED_UPDATE+0xb8>)
     d0c:	781b      	ldrb	r3, [r3, #0]
     d0e:	3301      	adds	r3, #1
     d10:	b2da      	uxtb	r2, r3
     d12:	4b06      	ldr	r3, [pc, #24]	; (d2c <OLED_UPDATE+0xb8>)
     d14:	701a      	strb	r2, [r3, #0]
     d16:	4b05      	ldr	r3, [pc, #20]	; (d2c <OLED_UPDATE+0xb8>)
     d18:	781b      	ldrb	r3, [r3, #0]
     d1a:	2b07      	cmp	r3, #7
     d1c:	d9bb      	bls.n	c96 <OLED_UPDATE+0x22>
			screen_buffer[cnt_loc+x_offset]=screen[cnt_loc][page];
			screen_buffer[0]=0x40;
			OLED_data_packet(screen_buffer,129);
		}
	}
}
     d1e:	46c0      	nop			; (mov r8, r8)
     d20:	46bd      	mov	sp, r7
     d22:	b002      	add	sp, #8
     d24:	bd80      	pop	{r7, pc}
     d26:	46c0      	nop			; (mov r8, r8)
     d28:	200006c4 	.word	0x200006c4
     d2c:	200006c5 	.word	0x200006c5
     d30:	200002b4 	.word	0x200002b4
     d34:	00000d5d 	.word	0x00000d5d
     d38:	200002c4 	.word	0x200002c4
     d3c:	20000234 	.word	0x20000234

00000d40 <OLED_setup>:

void OLED_setup()
{
     d40:	b580      	push	{r7, lr}
     d42:	af00      	add	r7, sp, #0
	#define DATA_LENGTH_OLED_SETUP 27

	static uint8_t OLED_setup[DATA_LENGTH_OLED_SETUP] = {
	0x00,0xAE,0x02,0x10,0x40,0xB0,0x81,0x80,0xA1,0xA6,0xA8,0x3F,0xAD,0x8B,0x30,0xC8,0xD3,0x00,0xD5,0x80,0xD9,0x1F,0xDA,0x12,0xDB,0x40,0xAF,};

	OLED_data_packet(OLED_setup,DATA_LENGTH_OLED_SETUP);
     d44:	4b03      	ldr	r3, [pc, #12]	; (d54 <OLED_setup+0x14>)
     d46:	211b      	movs	r1, #27
     d48:	0018      	movs	r0, r3
     d4a:	4b03      	ldr	r3, [pc, #12]	; (d58 <OLED_setup+0x18>)
     d4c:	4798      	blx	r3
}
     d4e:	46c0      	nop			; (mov r8, r8)
     d50:	46bd      	mov	sp, r7
     d52:	bd80      	pop	{r7, pc}
     d54:	20000004 	.word	0x20000004
     d58:	00000d5d 	.word	0x00000d5d

00000d5c <OLED_data_packet>:
// 00 - set col
// AF - Display ON


void OLED_data_packet(int packet[], int size)
{
     d5c:	b580      	push	{r7, lr}
     d5e:	b086      	sub	sp, #24
     d60:	af00      	add	r7, sp, #0
     d62:	6078      	str	r0, [r7, #4]
     d64:	6039      	str	r1, [r7, #0]
	struct i2c_master_packet data_packet = {
     d66:	2308      	movs	r3, #8
     d68:	18fb      	adds	r3, r7, r3
     d6a:	223c      	movs	r2, #60	; 0x3c
     d6c:	801a      	strh	r2, [r3, #0]
     d6e:	683b      	ldr	r3, [r7, #0]
     d70:	b29a      	uxth	r2, r3
     d72:	2308      	movs	r3, #8
     d74:	18fb      	adds	r3, r7, r3
     d76:	805a      	strh	r2, [r3, #2]
     d78:	2308      	movs	r3, #8
     d7a:	18fb      	adds	r3, r7, r3
     d7c:	687a      	ldr	r2, [r7, #4]
     d7e:	605a      	str	r2, [r3, #4]
     d80:	2308      	movs	r3, #8
     d82:	18fb      	adds	r3, r7, r3
     d84:	2200      	movs	r2, #0
     d86:	721a      	strb	r2, [r3, #8]
     d88:	2308      	movs	r3, #8
     d8a:	18fb      	adds	r3, r7, r3
     d8c:	2201      	movs	r2, #1
     d8e:	725a      	strb	r2, [r3, #9]
     d90:	2308      	movs	r3, #8
     d92:	18fb      	adds	r3, r7, r3
     d94:	220f      	movs	r2, #15
     d96:	729a      	strb	r2, [r3, #10]
		.ten_bit_address = false,
		.high_speed      = true,
		.hs_master_code  = 0x0F,
	};

	uint16_t timeout = 0;
     d98:	2316      	movs	r3, #22
     d9a:	18fb      	adds	r3, r7, r3
     d9c:	2200      	movs	r2, #0
     d9e:	801a      	strh	r2, [r3, #0]
	// Write buffer to slave until success.
	while (i2c_master_write_packet_wait(&i2c_master_instance, &data_packet) !=
     da0:	e00a      	b.n	db8 <OLED_data_packet+0x5c>
	STATUS_OK)
	{
		// Increment timeout counter and check if timed out.
		if (timeout++ == TIMEOUT)
     da2:	2316      	movs	r3, #22
     da4:	18fb      	adds	r3, r7, r3
     da6:	881b      	ldrh	r3, [r3, #0]
     da8:	2216      	movs	r2, #22
     daa:	18ba      	adds	r2, r7, r2
     dac:	1c59      	adds	r1, r3, #1
     dae:	8011      	strh	r1, [r2, #0]
     db0:	22fa      	movs	r2, #250	; 0xfa
     db2:	0092      	lsls	r2, r2, #2
     db4:	4293      	cmp	r3, r2
     db6:	d009      	beq.n	dcc <OLED_data_packet+0x70>
		.hs_master_code  = 0x0F,
	};

	uint16_t timeout = 0;
	// Write buffer to slave until success.
	while (i2c_master_write_packet_wait(&i2c_master_instance, &data_packet) !=
     db8:	2308      	movs	r3, #8
     dba:	18fa      	adds	r2, r7, r3
     dbc:	4b06      	ldr	r3, [pc, #24]	; (dd8 <OLED_data_packet+0x7c>)
     dbe:	0011      	movs	r1, r2
     dc0:	0018      	movs	r0, r3
     dc2:	4b06      	ldr	r3, [pc, #24]	; (ddc <OLED_data_packet+0x80>)
     dc4:	4798      	blx	r3
     dc6:	1e03      	subs	r3, r0, #0
     dc8:	d1eb      	bne.n	da2 <OLED_data_packet+0x46>
		if (timeout++ == TIMEOUT)
		{
			break;
		}
	}
}
     dca:	e000      	b.n	dce <OLED_data_packet+0x72>
	STATUS_OK)
	{
		// Increment timeout counter and check if timed out.
		if (timeout++ == TIMEOUT)
		{
			break;
     dcc:	46c0      	nop			; (mov r8, r8)
		}
	}
}
     dce:	46c0      	nop			; (mov r8, r8)
     dd0:	46bd      	mov	sp, r7
     dd2:	b006      	add	sp, #24
     dd4:	bd80      	pop	{r7, pc}
     dd6:	46c0      	nop			; (mov r8, r8)
     dd8:	200006ec 	.word	0x200006ec
     ddc:	00002eb9 	.word	0x00002eb9

00000de0 <OLED_CLR>:

void OLED_CLR(void)
{
     de0:	b580      	push	{r7, lr}
     de2:	b082      	sub	sp, #8
     de4:	af00      	add	r7, sp, #0
	int count=0;
     de6:	2300      	movs	r3, #0
     de8:	607b      	str	r3, [r7, #4]
	int count1=0;
     dea:	2300      	movs	r3, #0
     dec:	603b      	str	r3, [r7, #0]
	for (count1=0;count1<8;count1++)
     dee:	2300      	movs	r3, #0
     df0:	603b      	str	r3, [r7, #0]
     df2:	e013      	b.n	e1c <OLED_CLR+0x3c>
	{
		for (count=0;count<128;count++)
     df4:	2300      	movs	r3, #0
     df6:	607b      	str	r3, [r7, #4]
     df8:	e00a      	b.n	e10 <OLED_CLR+0x30>
		{
			screen[count][count1]=0x00;
     dfa:	4a0e      	ldr	r2, [pc, #56]	; (e34 <OLED_CLR+0x54>)
     dfc:	687b      	ldr	r3, [r7, #4]
     dfe:	00db      	lsls	r3, r3, #3
     e00:	18d2      	adds	r2, r2, r3
     e02:	683b      	ldr	r3, [r7, #0]
     e04:	18d3      	adds	r3, r2, r3
     e06:	2200      	movs	r2, #0
     e08:	701a      	strb	r2, [r3, #0]
{
	int count=0;
	int count1=0;
	for (count1=0;count1<8;count1++)
	{
		for (count=0;count<128;count++)
     e0a:	687b      	ldr	r3, [r7, #4]
     e0c:	3301      	adds	r3, #1
     e0e:	607b      	str	r3, [r7, #4]
     e10:	687b      	ldr	r3, [r7, #4]
     e12:	2b7f      	cmp	r3, #127	; 0x7f
     e14:	ddf1      	ble.n	dfa <OLED_CLR+0x1a>

void OLED_CLR(void)
{
	int count=0;
	int count1=0;
	for (count1=0;count1<8;count1++)
     e16:	683b      	ldr	r3, [r7, #0]
     e18:	3301      	adds	r3, #1
     e1a:	603b      	str	r3, [r7, #0]
     e1c:	683b      	ldr	r3, [r7, #0]
     e1e:	2b07      	cmp	r3, #7
     e20:	dde8      	ble.n	df4 <OLED_CLR+0x14>
		for (count=0;count<128;count++)
		{
			screen[count][count1]=0x00;
		}
	}
	pageflag=0;
     e22:	4b05      	ldr	r3, [pc, #20]	; (e38 <OLED_CLR+0x58>)
     e24:	2200      	movs	r2, #0
     e26:	701a      	strb	r2, [r3, #0]
	OLED_UPDATE();
     e28:	4b04      	ldr	r3, [pc, #16]	; (e3c <OLED_CLR+0x5c>)
     e2a:	4798      	blx	r3
};
     e2c:	46c0      	nop			; (mov r8, r8)
     e2e:	46bd      	mov	sp, r7
     e30:	b002      	add	sp, #8
     e32:	bd80      	pop	{r7, pc}
     e34:	200002c4 	.word	0x200002c4
     e38:	200006c4 	.word	0x200006c4
     e3c:	00000c75 	.word	0x00000c75

00000e40 <OLED_FONT_SETUP>:
void OLED_FONT_SETUP(void)
{
     e40:	b580      	push	{r7, lr}
     e42:	af00      	add	r7, sp, #0
	// FONTS - symbols+numbers+uppercase+lowercase starting at normal char 0x20 uptp char 0x7F (128-32 symbols)
	FONT[0][0]=0x00;FONT[0][1]=0x00;FONT[0][2]=0x00;FONT[0][3]=0x00;FONT[0][4]=0x00;FONT[0][5]=0x00;FONT[0][6]=0x00;FONT[0][7]=0x00;       // SPACE
     e44:	4bfe      	ldr	r3, [pc, #1016]	; (1240 <OLED_FONT_SETUP+0x400>)
     e46:	2200      	movs	r2, #0
     e48:	701a      	strb	r2, [r3, #0]
     e4a:	4bfd      	ldr	r3, [pc, #1012]	; (1240 <OLED_FONT_SETUP+0x400>)
     e4c:	2200      	movs	r2, #0
     e4e:	705a      	strb	r2, [r3, #1]
     e50:	4bfb      	ldr	r3, [pc, #1004]	; (1240 <OLED_FONT_SETUP+0x400>)
     e52:	2200      	movs	r2, #0
     e54:	709a      	strb	r2, [r3, #2]
     e56:	4bfa      	ldr	r3, [pc, #1000]	; (1240 <OLED_FONT_SETUP+0x400>)
     e58:	2200      	movs	r2, #0
     e5a:	70da      	strb	r2, [r3, #3]
     e5c:	4bf8      	ldr	r3, [pc, #992]	; (1240 <OLED_FONT_SETUP+0x400>)
     e5e:	2200      	movs	r2, #0
     e60:	711a      	strb	r2, [r3, #4]
     e62:	4bf7      	ldr	r3, [pc, #988]	; (1240 <OLED_FONT_SETUP+0x400>)
     e64:	2200      	movs	r2, #0
     e66:	715a      	strb	r2, [r3, #5]
     e68:	4bf5      	ldr	r3, [pc, #980]	; (1240 <OLED_FONT_SETUP+0x400>)
     e6a:	2200      	movs	r2, #0
     e6c:	719a      	strb	r2, [r3, #6]
     e6e:	4bf4      	ldr	r3, [pc, #976]	; (1240 <OLED_FONT_SETUP+0x400>)
     e70:	2200      	movs	r2, #0
     e72:	71da      	strb	r2, [r3, #7]
	FONT[1][0]=0x00;FONT[1][1]=0x00;FONT[1][2]=0x00;FONT[1][3]=0xBC;FONT[1][4]=0x00;FONT[1][5]=0x00;FONT[1][6]=0x00;FONT[0][7]=0x00;       //   !
     e74:	4bf2      	ldr	r3, [pc, #968]	; (1240 <OLED_FONT_SETUP+0x400>)
     e76:	2200      	movs	r2, #0
     e78:	721a      	strb	r2, [r3, #8]
     e7a:	4bf1      	ldr	r3, [pc, #964]	; (1240 <OLED_FONT_SETUP+0x400>)
     e7c:	2200      	movs	r2, #0
     e7e:	725a      	strb	r2, [r3, #9]
     e80:	4bef      	ldr	r3, [pc, #956]	; (1240 <OLED_FONT_SETUP+0x400>)
     e82:	2200      	movs	r2, #0
     e84:	729a      	strb	r2, [r3, #10]
     e86:	4bee      	ldr	r3, [pc, #952]	; (1240 <OLED_FONT_SETUP+0x400>)
     e88:	22bc      	movs	r2, #188	; 0xbc
     e8a:	72da      	strb	r2, [r3, #11]
     e8c:	4bec      	ldr	r3, [pc, #944]	; (1240 <OLED_FONT_SETUP+0x400>)
     e8e:	2200      	movs	r2, #0
     e90:	731a      	strb	r2, [r3, #12]
     e92:	4beb      	ldr	r3, [pc, #940]	; (1240 <OLED_FONT_SETUP+0x400>)
     e94:	2200      	movs	r2, #0
     e96:	735a      	strb	r2, [r3, #13]
     e98:	4be9      	ldr	r3, [pc, #932]	; (1240 <OLED_FONT_SETUP+0x400>)
     e9a:	2200      	movs	r2, #0
     e9c:	739a      	strb	r2, [r3, #14]
     e9e:	4be8      	ldr	r3, [pc, #928]	; (1240 <OLED_FONT_SETUP+0x400>)
     ea0:	2200      	movs	r2, #0
     ea2:	71da      	strb	r2, [r3, #7]
	FONT[2][0]=0x00;FONT[2][1]=0x00;FONT[2][2]=0x0C;FONT[2][3]=0x00;FONT[2][4]=0x00;FONT[2][5]=0x0C;FONT[2][6]=0x00;FONT[2][7]=0x00;       //   "
     ea4:	4be6      	ldr	r3, [pc, #920]	; (1240 <OLED_FONT_SETUP+0x400>)
     ea6:	2200      	movs	r2, #0
     ea8:	741a      	strb	r2, [r3, #16]
     eaa:	4be5      	ldr	r3, [pc, #916]	; (1240 <OLED_FONT_SETUP+0x400>)
     eac:	2200      	movs	r2, #0
     eae:	745a      	strb	r2, [r3, #17]
     eb0:	4be3      	ldr	r3, [pc, #908]	; (1240 <OLED_FONT_SETUP+0x400>)
     eb2:	220c      	movs	r2, #12
     eb4:	749a      	strb	r2, [r3, #18]
     eb6:	4be2      	ldr	r3, [pc, #904]	; (1240 <OLED_FONT_SETUP+0x400>)
     eb8:	2200      	movs	r2, #0
     eba:	74da      	strb	r2, [r3, #19]
     ebc:	4be0      	ldr	r3, [pc, #896]	; (1240 <OLED_FONT_SETUP+0x400>)
     ebe:	2200      	movs	r2, #0
     ec0:	751a      	strb	r2, [r3, #20]
     ec2:	4bdf      	ldr	r3, [pc, #892]	; (1240 <OLED_FONT_SETUP+0x400>)
     ec4:	220c      	movs	r2, #12
     ec6:	755a      	strb	r2, [r3, #21]
     ec8:	4bdd      	ldr	r3, [pc, #884]	; (1240 <OLED_FONT_SETUP+0x400>)
     eca:	2200      	movs	r2, #0
     ecc:	759a      	strb	r2, [r3, #22]
     ece:	4bdc      	ldr	r3, [pc, #880]	; (1240 <OLED_FONT_SETUP+0x400>)
     ed0:	2200      	movs	r2, #0
     ed2:	75da      	strb	r2, [r3, #23]
	FONT[3][0]=0x00;FONT[3][1]=0x24;FONT[3][2]=0x7E;FONT[3][3]=0x24;FONT[3][4]=0x24;FONT[3][5]=0x7E;FONT[3][6]=0x24;FONT[3][7]=0x00;       //   #
     ed4:	4bda      	ldr	r3, [pc, #872]	; (1240 <OLED_FONT_SETUP+0x400>)
     ed6:	2200      	movs	r2, #0
     ed8:	761a      	strb	r2, [r3, #24]
     eda:	4bd9      	ldr	r3, [pc, #868]	; (1240 <OLED_FONT_SETUP+0x400>)
     edc:	2224      	movs	r2, #36	; 0x24
     ede:	765a      	strb	r2, [r3, #25]
     ee0:	4bd7      	ldr	r3, [pc, #860]	; (1240 <OLED_FONT_SETUP+0x400>)
     ee2:	227e      	movs	r2, #126	; 0x7e
     ee4:	769a      	strb	r2, [r3, #26]
     ee6:	4bd6      	ldr	r3, [pc, #856]	; (1240 <OLED_FONT_SETUP+0x400>)
     ee8:	2224      	movs	r2, #36	; 0x24
     eea:	76da      	strb	r2, [r3, #27]
     eec:	4bd4      	ldr	r3, [pc, #848]	; (1240 <OLED_FONT_SETUP+0x400>)
     eee:	2224      	movs	r2, #36	; 0x24
     ef0:	771a      	strb	r2, [r3, #28]
     ef2:	4bd3      	ldr	r3, [pc, #844]	; (1240 <OLED_FONT_SETUP+0x400>)
     ef4:	227e      	movs	r2, #126	; 0x7e
     ef6:	775a      	strb	r2, [r3, #29]
     ef8:	4bd1      	ldr	r3, [pc, #836]	; (1240 <OLED_FONT_SETUP+0x400>)
     efa:	2224      	movs	r2, #36	; 0x24
     efc:	779a      	strb	r2, [r3, #30]
     efe:	4bd0      	ldr	r3, [pc, #832]	; (1240 <OLED_FONT_SETUP+0x400>)
     f00:	2200      	movs	r2, #0
     f02:	77da      	strb	r2, [r3, #31]
	FONT[4][0]=0x00;FONT[4][1]=0x5C;FONT[4][2]=0x54;FONT[4][3]=0xFE;FONT[4][4]=0x54;FONT[4][5]=0x74;FONT[4][6]=0x00;FONT[4][7]=0x00;       //   $
     f04:	4bce      	ldr	r3, [pc, #824]	; (1240 <OLED_FONT_SETUP+0x400>)
     f06:	2220      	movs	r2, #32
     f08:	2100      	movs	r1, #0
     f0a:	5499      	strb	r1, [r3, r2]
     f0c:	4bcc      	ldr	r3, [pc, #816]	; (1240 <OLED_FONT_SETUP+0x400>)
     f0e:	2221      	movs	r2, #33	; 0x21
     f10:	215c      	movs	r1, #92	; 0x5c
     f12:	5499      	strb	r1, [r3, r2]
     f14:	4bca      	ldr	r3, [pc, #808]	; (1240 <OLED_FONT_SETUP+0x400>)
     f16:	2222      	movs	r2, #34	; 0x22
     f18:	2154      	movs	r1, #84	; 0x54
     f1a:	5499      	strb	r1, [r3, r2]
     f1c:	4bc8      	ldr	r3, [pc, #800]	; (1240 <OLED_FONT_SETUP+0x400>)
     f1e:	2223      	movs	r2, #35	; 0x23
     f20:	21fe      	movs	r1, #254	; 0xfe
     f22:	5499      	strb	r1, [r3, r2]
     f24:	4bc6      	ldr	r3, [pc, #792]	; (1240 <OLED_FONT_SETUP+0x400>)
     f26:	2224      	movs	r2, #36	; 0x24
     f28:	2154      	movs	r1, #84	; 0x54
     f2a:	5499      	strb	r1, [r3, r2]
     f2c:	4bc4      	ldr	r3, [pc, #784]	; (1240 <OLED_FONT_SETUP+0x400>)
     f2e:	2225      	movs	r2, #37	; 0x25
     f30:	2174      	movs	r1, #116	; 0x74
     f32:	5499      	strb	r1, [r3, r2]
     f34:	4bc2      	ldr	r3, [pc, #776]	; (1240 <OLED_FONT_SETUP+0x400>)
     f36:	2226      	movs	r2, #38	; 0x26
     f38:	2100      	movs	r1, #0
     f3a:	5499      	strb	r1, [r3, r2]
     f3c:	4bc0      	ldr	r3, [pc, #768]	; (1240 <OLED_FONT_SETUP+0x400>)
     f3e:	2227      	movs	r2, #39	; 0x27
     f40:	2100      	movs	r1, #0
     f42:	5499      	strb	r1, [r3, r2]
	FONT[5][0]=0x00;FONT[5][1]=0x46;FONT[5][2]=0x26;FONT[5][3]=0x10;FONT[5][4]=0x08;FONT[5][5]=0x64;FONT[5][6]=0x62;FONT[5][7]=0x00;       //   %
     f44:	4bbe      	ldr	r3, [pc, #760]	; (1240 <OLED_FONT_SETUP+0x400>)
     f46:	2228      	movs	r2, #40	; 0x28
     f48:	2100      	movs	r1, #0
     f4a:	5499      	strb	r1, [r3, r2]
     f4c:	4bbc      	ldr	r3, [pc, #752]	; (1240 <OLED_FONT_SETUP+0x400>)
     f4e:	2229      	movs	r2, #41	; 0x29
     f50:	2146      	movs	r1, #70	; 0x46
     f52:	5499      	strb	r1, [r3, r2]
     f54:	4bba      	ldr	r3, [pc, #744]	; (1240 <OLED_FONT_SETUP+0x400>)
     f56:	222a      	movs	r2, #42	; 0x2a
     f58:	2126      	movs	r1, #38	; 0x26
     f5a:	5499      	strb	r1, [r3, r2]
     f5c:	4bb8      	ldr	r3, [pc, #736]	; (1240 <OLED_FONT_SETUP+0x400>)
     f5e:	222b      	movs	r2, #43	; 0x2b
     f60:	2110      	movs	r1, #16
     f62:	5499      	strb	r1, [r3, r2]
     f64:	4bb6      	ldr	r3, [pc, #728]	; (1240 <OLED_FONT_SETUP+0x400>)
     f66:	222c      	movs	r2, #44	; 0x2c
     f68:	2108      	movs	r1, #8
     f6a:	5499      	strb	r1, [r3, r2]
     f6c:	4bb4      	ldr	r3, [pc, #720]	; (1240 <OLED_FONT_SETUP+0x400>)
     f6e:	222d      	movs	r2, #45	; 0x2d
     f70:	2164      	movs	r1, #100	; 0x64
     f72:	5499      	strb	r1, [r3, r2]
     f74:	4bb2      	ldr	r3, [pc, #712]	; (1240 <OLED_FONT_SETUP+0x400>)
     f76:	222e      	movs	r2, #46	; 0x2e
     f78:	2162      	movs	r1, #98	; 0x62
     f7a:	5499      	strb	r1, [r3, r2]
     f7c:	4bb0      	ldr	r3, [pc, #704]	; (1240 <OLED_FONT_SETUP+0x400>)
     f7e:	222f      	movs	r2, #47	; 0x2f
     f80:	2100      	movs	r1, #0
     f82:	5499      	strb	r1, [r3, r2]
	FONT[6][0]=0x00;FONT[6][1]=0x20;FONT[6][2]=0x54;FONT[6][3]=0x4A;FONT[6][4]=0x54;FONT[6][5]=0x20;FONT[6][6]=0x50;FONT[6][7]=0x00;       //   &
     f84:	4bae      	ldr	r3, [pc, #696]	; (1240 <OLED_FONT_SETUP+0x400>)
     f86:	2230      	movs	r2, #48	; 0x30
     f88:	2100      	movs	r1, #0
     f8a:	5499      	strb	r1, [r3, r2]
     f8c:	4bac      	ldr	r3, [pc, #688]	; (1240 <OLED_FONT_SETUP+0x400>)
     f8e:	2231      	movs	r2, #49	; 0x31
     f90:	2120      	movs	r1, #32
     f92:	5499      	strb	r1, [r3, r2]
     f94:	4baa      	ldr	r3, [pc, #680]	; (1240 <OLED_FONT_SETUP+0x400>)
     f96:	2232      	movs	r2, #50	; 0x32
     f98:	2154      	movs	r1, #84	; 0x54
     f9a:	5499      	strb	r1, [r3, r2]
     f9c:	4ba8      	ldr	r3, [pc, #672]	; (1240 <OLED_FONT_SETUP+0x400>)
     f9e:	2233      	movs	r2, #51	; 0x33
     fa0:	214a      	movs	r1, #74	; 0x4a
     fa2:	5499      	strb	r1, [r3, r2]
     fa4:	4ba6      	ldr	r3, [pc, #664]	; (1240 <OLED_FONT_SETUP+0x400>)
     fa6:	2234      	movs	r2, #52	; 0x34
     fa8:	2154      	movs	r1, #84	; 0x54
     faa:	5499      	strb	r1, [r3, r2]
     fac:	4ba4      	ldr	r3, [pc, #656]	; (1240 <OLED_FONT_SETUP+0x400>)
     fae:	2235      	movs	r2, #53	; 0x35
     fb0:	2120      	movs	r1, #32
     fb2:	5499      	strb	r1, [r3, r2]
     fb4:	4ba2      	ldr	r3, [pc, #648]	; (1240 <OLED_FONT_SETUP+0x400>)
     fb6:	2236      	movs	r2, #54	; 0x36
     fb8:	2150      	movs	r1, #80	; 0x50
     fba:	5499      	strb	r1, [r3, r2]
     fbc:	4ba0      	ldr	r3, [pc, #640]	; (1240 <OLED_FONT_SETUP+0x400>)
     fbe:	2237      	movs	r2, #55	; 0x37
     fc0:	2100      	movs	r1, #0
     fc2:	5499      	strb	r1, [r3, r2]
	FONT[7][0]=0x00;FONT[7][1]=0x00;FONT[7][2]=0x00;FONT[7][3]=0x06;FONT[7][4]=0x00;FONT[7][5]=0x00;FONT[7][6]=0x00;FONT[7][7]=0x00;       //   '
     fc4:	4b9e      	ldr	r3, [pc, #632]	; (1240 <OLED_FONT_SETUP+0x400>)
     fc6:	2238      	movs	r2, #56	; 0x38
     fc8:	2100      	movs	r1, #0
     fca:	5499      	strb	r1, [r3, r2]
     fcc:	4b9c      	ldr	r3, [pc, #624]	; (1240 <OLED_FONT_SETUP+0x400>)
     fce:	2239      	movs	r2, #57	; 0x39
     fd0:	2100      	movs	r1, #0
     fd2:	5499      	strb	r1, [r3, r2]
     fd4:	4b9a      	ldr	r3, [pc, #616]	; (1240 <OLED_FONT_SETUP+0x400>)
     fd6:	223a      	movs	r2, #58	; 0x3a
     fd8:	2100      	movs	r1, #0
     fda:	5499      	strb	r1, [r3, r2]
     fdc:	4b98      	ldr	r3, [pc, #608]	; (1240 <OLED_FONT_SETUP+0x400>)
     fde:	223b      	movs	r2, #59	; 0x3b
     fe0:	2106      	movs	r1, #6
     fe2:	5499      	strb	r1, [r3, r2]
     fe4:	4b96      	ldr	r3, [pc, #600]	; (1240 <OLED_FONT_SETUP+0x400>)
     fe6:	223c      	movs	r2, #60	; 0x3c
     fe8:	2100      	movs	r1, #0
     fea:	5499      	strb	r1, [r3, r2]
     fec:	4b94      	ldr	r3, [pc, #592]	; (1240 <OLED_FONT_SETUP+0x400>)
     fee:	223d      	movs	r2, #61	; 0x3d
     ff0:	2100      	movs	r1, #0
     ff2:	5499      	strb	r1, [r3, r2]
     ff4:	4b92      	ldr	r3, [pc, #584]	; (1240 <OLED_FONT_SETUP+0x400>)
     ff6:	223e      	movs	r2, #62	; 0x3e
     ff8:	2100      	movs	r1, #0
     ffa:	5499      	strb	r1, [r3, r2]
     ffc:	4b90      	ldr	r3, [pc, #576]	; (1240 <OLED_FONT_SETUP+0x400>)
     ffe:	223f      	movs	r2, #63	; 0x3f
    1000:	2100      	movs	r1, #0
    1002:	5499      	strb	r1, [r3, r2]
	FONT[8][0]=0x00;FONT[8][1]=0x00;FONT[8][2]=0x00;FONT[8][3]=0x3C;FONT[8][4]=0x42;FONT[8][5]=0x00;FONT[8][6]=0x00;FONT[8][7]=0x00;       //   (
    1004:	4b8e      	ldr	r3, [pc, #568]	; (1240 <OLED_FONT_SETUP+0x400>)
    1006:	2240      	movs	r2, #64	; 0x40
    1008:	2100      	movs	r1, #0
    100a:	5499      	strb	r1, [r3, r2]
    100c:	4b8c      	ldr	r3, [pc, #560]	; (1240 <OLED_FONT_SETUP+0x400>)
    100e:	2241      	movs	r2, #65	; 0x41
    1010:	2100      	movs	r1, #0
    1012:	5499      	strb	r1, [r3, r2]
    1014:	4b8a      	ldr	r3, [pc, #552]	; (1240 <OLED_FONT_SETUP+0x400>)
    1016:	2242      	movs	r2, #66	; 0x42
    1018:	2100      	movs	r1, #0
    101a:	5499      	strb	r1, [r3, r2]
    101c:	4b88      	ldr	r3, [pc, #544]	; (1240 <OLED_FONT_SETUP+0x400>)
    101e:	2243      	movs	r2, #67	; 0x43
    1020:	213c      	movs	r1, #60	; 0x3c
    1022:	5499      	strb	r1, [r3, r2]
    1024:	4b86      	ldr	r3, [pc, #536]	; (1240 <OLED_FONT_SETUP+0x400>)
    1026:	2244      	movs	r2, #68	; 0x44
    1028:	2142      	movs	r1, #66	; 0x42
    102a:	5499      	strb	r1, [r3, r2]
    102c:	4b84      	ldr	r3, [pc, #528]	; (1240 <OLED_FONT_SETUP+0x400>)
    102e:	2245      	movs	r2, #69	; 0x45
    1030:	2100      	movs	r1, #0
    1032:	5499      	strb	r1, [r3, r2]
    1034:	4b82      	ldr	r3, [pc, #520]	; (1240 <OLED_FONT_SETUP+0x400>)
    1036:	2246      	movs	r2, #70	; 0x46
    1038:	2100      	movs	r1, #0
    103a:	5499      	strb	r1, [r3, r2]
    103c:	4b80      	ldr	r3, [pc, #512]	; (1240 <OLED_FONT_SETUP+0x400>)
    103e:	2247      	movs	r2, #71	; 0x47
    1040:	2100      	movs	r1, #0
    1042:	5499      	strb	r1, [r3, r2]
	FONT[9][0]=0x00;FONT[9][1]=0x00;FONT[9][2]=0x00;FONT[9][3]=0x42;FONT[9][4]=0x3C;FONT[9][5]=0x00;FONT[9][6]=0x00;FONT[9][7]=0x00;       //   )
    1044:	4b7e      	ldr	r3, [pc, #504]	; (1240 <OLED_FONT_SETUP+0x400>)
    1046:	2248      	movs	r2, #72	; 0x48
    1048:	2100      	movs	r1, #0
    104a:	5499      	strb	r1, [r3, r2]
    104c:	4b7c      	ldr	r3, [pc, #496]	; (1240 <OLED_FONT_SETUP+0x400>)
    104e:	2249      	movs	r2, #73	; 0x49
    1050:	2100      	movs	r1, #0
    1052:	5499      	strb	r1, [r3, r2]
    1054:	4b7a      	ldr	r3, [pc, #488]	; (1240 <OLED_FONT_SETUP+0x400>)
    1056:	224a      	movs	r2, #74	; 0x4a
    1058:	2100      	movs	r1, #0
    105a:	5499      	strb	r1, [r3, r2]
    105c:	4b78      	ldr	r3, [pc, #480]	; (1240 <OLED_FONT_SETUP+0x400>)
    105e:	224b      	movs	r2, #75	; 0x4b
    1060:	2142      	movs	r1, #66	; 0x42
    1062:	5499      	strb	r1, [r3, r2]
    1064:	4b76      	ldr	r3, [pc, #472]	; (1240 <OLED_FONT_SETUP+0x400>)
    1066:	224c      	movs	r2, #76	; 0x4c
    1068:	213c      	movs	r1, #60	; 0x3c
    106a:	5499      	strb	r1, [r3, r2]
    106c:	4b74      	ldr	r3, [pc, #464]	; (1240 <OLED_FONT_SETUP+0x400>)
    106e:	224d      	movs	r2, #77	; 0x4d
    1070:	2100      	movs	r1, #0
    1072:	5499      	strb	r1, [r3, r2]
    1074:	4b72      	ldr	r3, [pc, #456]	; (1240 <OLED_FONT_SETUP+0x400>)
    1076:	224e      	movs	r2, #78	; 0x4e
    1078:	2100      	movs	r1, #0
    107a:	5499      	strb	r1, [r3, r2]
    107c:	4b70      	ldr	r3, [pc, #448]	; (1240 <OLED_FONT_SETUP+0x400>)
    107e:	224f      	movs	r2, #79	; 0x4f
    1080:	2100      	movs	r1, #0
    1082:	5499      	strb	r1, [r3, r2]
	FONT[10][0]=0x00;FONT[10][1]=0x20;FONT[10][2]=0x54;FONT[10][3]=0x38;FONT[10][4]=0x54;FONT[10][5]=0x20;FONT[10][6]=0x00;FONT[10][7]=0x00;//  *	ERROR
    1084:	4b6e      	ldr	r3, [pc, #440]	; (1240 <OLED_FONT_SETUP+0x400>)
    1086:	2250      	movs	r2, #80	; 0x50
    1088:	2100      	movs	r1, #0
    108a:	5499      	strb	r1, [r3, r2]
    108c:	4b6c      	ldr	r3, [pc, #432]	; (1240 <OLED_FONT_SETUP+0x400>)
    108e:	2251      	movs	r2, #81	; 0x51
    1090:	2120      	movs	r1, #32
    1092:	5499      	strb	r1, [r3, r2]
    1094:	4b6a      	ldr	r3, [pc, #424]	; (1240 <OLED_FONT_SETUP+0x400>)
    1096:	2252      	movs	r2, #82	; 0x52
    1098:	2154      	movs	r1, #84	; 0x54
    109a:	5499      	strb	r1, [r3, r2]
    109c:	4b68      	ldr	r3, [pc, #416]	; (1240 <OLED_FONT_SETUP+0x400>)
    109e:	2253      	movs	r2, #83	; 0x53
    10a0:	2138      	movs	r1, #56	; 0x38
    10a2:	5499      	strb	r1, [r3, r2]
    10a4:	4b66      	ldr	r3, [pc, #408]	; (1240 <OLED_FONT_SETUP+0x400>)
    10a6:	2254      	movs	r2, #84	; 0x54
    10a8:	2154      	movs	r1, #84	; 0x54
    10aa:	5499      	strb	r1, [r3, r2]
    10ac:	4b64      	ldr	r3, [pc, #400]	; (1240 <OLED_FONT_SETUP+0x400>)
    10ae:	2255      	movs	r2, #85	; 0x55
    10b0:	2120      	movs	r1, #32
    10b2:	5499      	strb	r1, [r3, r2]
    10b4:	4b62      	ldr	r3, [pc, #392]	; (1240 <OLED_FONT_SETUP+0x400>)
    10b6:	2256      	movs	r2, #86	; 0x56
    10b8:	2100      	movs	r1, #0
    10ba:	5499      	strb	r1, [r3, r2]
    10bc:	4b60      	ldr	r3, [pc, #384]	; (1240 <OLED_FONT_SETUP+0x400>)
    10be:	2257      	movs	r2, #87	; 0x57
    10c0:	2100      	movs	r1, #0
    10c2:	5499      	strb	r1, [r3, r2]
	FONT[11][0]=0x00;FONT[11][1]=0x10;FONT[11][2]=0x10;FONT[11][3]=0x7C;FONT[11][4]=0x10;FONT[11][5]=0x10;FONT[11][6]=0x00;FONT[11][7]=0x00;//  +
    10c4:	4b5e      	ldr	r3, [pc, #376]	; (1240 <OLED_FONT_SETUP+0x400>)
    10c6:	2258      	movs	r2, #88	; 0x58
    10c8:	2100      	movs	r1, #0
    10ca:	5499      	strb	r1, [r3, r2]
    10cc:	4b5c      	ldr	r3, [pc, #368]	; (1240 <OLED_FONT_SETUP+0x400>)
    10ce:	2259      	movs	r2, #89	; 0x59
    10d0:	2110      	movs	r1, #16
    10d2:	5499      	strb	r1, [r3, r2]
    10d4:	4b5a      	ldr	r3, [pc, #360]	; (1240 <OLED_FONT_SETUP+0x400>)
    10d6:	225a      	movs	r2, #90	; 0x5a
    10d8:	2110      	movs	r1, #16
    10da:	5499      	strb	r1, [r3, r2]
    10dc:	4b58      	ldr	r3, [pc, #352]	; (1240 <OLED_FONT_SETUP+0x400>)
    10de:	225b      	movs	r2, #91	; 0x5b
    10e0:	217c      	movs	r1, #124	; 0x7c
    10e2:	5499      	strb	r1, [r3, r2]
    10e4:	4b56      	ldr	r3, [pc, #344]	; (1240 <OLED_FONT_SETUP+0x400>)
    10e6:	225c      	movs	r2, #92	; 0x5c
    10e8:	2110      	movs	r1, #16
    10ea:	5499      	strb	r1, [r3, r2]
    10ec:	4b54      	ldr	r3, [pc, #336]	; (1240 <OLED_FONT_SETUP+0x400>)
    10ee:	225d      	movs	r2, #93	; 0x5d
    10f0:	2110      	movs	r1, #16
    10f2:	5499      	strb	r1, [r3, r2]
    10f4:	4b52      	ldr	r3, [pc, #328]	; (1240 <OLED_FONT_SETUP+0x400>)
    10f6:	225e      	movs	r2, #94	; 0x5e
    10f8:	2100      	movs	r1, #0
    10fa:	5499      	strb	r1, [r3, r2]
    10fc:	4b50      	ldr	r3, [pc, #320]	; (1240 <OLED_FONT_SETUP+0x400>)
    10fe:	225f      	movs	r2, #95	; 0x5f
    1100:	2100      	movs	r1, #0
    1102:	5499      	strb	r1, [r3, r2]
	FONT[12][0]=0x00;FONT[12][1]=0x00;FONT[12][2]=0x00;FONT[12][3]=0x80;FONT[12][4]=0x60;FONT[12][5]=0x00;FONT[12][6]=0x00;FONT[12][7]=0x00;//  ,
    1104:	4b4e      	ldr	r3, [pc, #312]	; (1240 <OLED_FONT_SETUP+0x400>)
    1106:	2260      	movs	r2, #96	; 0x60
    1108:	2100      	movs	r1, #0
    110a:	5499      	strb	r1, [r3, r2]
    110c:	4b4c      	ldr	r3, [pc, #304]	; (1240 <OLED_FONT_SETUP+0x400>)
    110e:	2261      	movs	r2, #97	; 0x61
    1110:	2100      	movs	r1, #0
    1112:	5499      	strb	r1, [r3, r2]
    1114:	4b4a      	ldr	r3, [pc, #296]	; (1240 <OLED_FONT_SETUP+0x400>)
    1116:	2262      	movs	r2, #98	; 0x62
    1118:	2100      	movs	r1, #0
    111a:	5499      	strb	r1, [r3, r2]
    111c:	4b48      	ldr	r3, [pc, #288]	; (1240 <OLED_FONT_SETUP+0x400>)
    111e:	2263      	movs	r2, #99	; 0x63
    1120:	2180      	movs	r1, #128	; 0x80
    1122:	5499      	strb	r1, [r3, r2]
    1124:	4b46      	ldr	r3, [pc, #280]	; (1240 <OLED_FONT_SETUP+0x400>)
    1126:	2264      	movs	r2, #100	; 0x64
    1128:	2160      	movs	r1, #96	; 0x60
    112a:	5499      	strb	r1, [r3, r2]
    112c:	4b44      	ldr	r3, [pc, #272]	; (1240 <OLED_FONT_SETUP+0x400>)
    112e:	2265      	movs	r2, #101	; 0x65
    1130:	2100      	movs	r1, #0
    1132:	5499      	strb	r1, [r3, r2]
    1134:	4b42      	ldr	r3, [pc, #264]	; (1240 <OLED_FONT_SETUP+0x400>)
    1136:	2266      	movs	r2, #102	; 0x66
    1138:	2100      	movs	r1, #0
    113a:	5499      	strb	r1, [r3, r2]
    113c:	4b40      	ldr	r3, [pc, #256]	; (1240 <OLED_FONT_SETUP+0x400>)
    113e:	2267      	movs	r2, #103	; 0x67
    1140:	2100      	movs	r1, #0
    1142:	5499      	strb	r1, [r3, r2]
	FONT[13][0]=0x00;FONT[13][1]=0x10;FONT[13][2]=0x10;FONT[13][3]=0x10;FONT[13][4]=0x10;FONT[13][5]=0x10;FONT[13][6]=0x00;FONT[13][7]=0x00;//  -
    1144:	4b3e      	ldr	r3, [pc, #248]	; (1240 <OLED_FONT_SETUP+0x400>)
    1146:	2268      	movs	r2, #104	; 0x68
    1148:	2100      	movs	r1, #0
    114a:	5499      	strb	r1, [r3, r2]
    114c:	4b3c      	ldr	r3, [pc, #240]	; (1240 <OLED_FONT_SETUP+0x400>)
    114e:	2269      	movs	r2, #105	; 0x69
    1150:	2110      	movs	r1, #16
    1152:	5499      	strb	r1, [r3, r2]
    1154:	4b3a      	ldr	r3, [pc, #232]	; (1240 <OLED_FONT_SETUP+0x400>)
    1156:	226a      	movs	r2, #106	; 0x6a
    1158:	2110      	movs	r1, #16
    115a:	5499      	strb	r1, [r3, r2]
    115c:	4b38      	ldr	r3, [pc, #224]	; (1240 <OLED_FONT_SETUP+0x400>)
    115e:	226b      	movs	r2, #107	; 0x6b
    1160:	2110      	movs	r1, #16
    1162:	5499      	strb	r1, [r3, r2]
    1164:	4b36      	ldr	r3, [pc, #216]	; (1240 <OLED_FONT_SETUP+0x400>)
    1166:	226c      	movs	r2, #108	; 0x6c
    1168:	2110      	movs	r1, #16
    116a:	5499      	strb	r1, [r3, r2]
    116c:	4b34      	ldr	r3, [pc, #208]	; (1240 <OLED_FONT_SETUP+0x400>)
    116e:	226d      	movs	r2, #109	; 0x6d
    1170:	2110      	movs	r1, #16
    1172:	5499      	strb	r1, [r3, r2]
    1174:	4b32      	ldr	r3, [pc, #200]	; (1240 <OLED_FONT_SETUP+0x400>)
    1176:	226e      	movs	r2, #110	; 0x6e
    1178:	2100      	movs	r1, #0
    117a:	5499      	strb	r1, [r3, r2]
    117c:	4b30      	ldr	r3, [pc, #192]	; (1240 <OLED_FONT_SETUP+0x400>)
    117e:	226f      	movs	r2, #111	; 0x6f
    1180:	2100      	movs	r1, #0
    1182:	5499      	strb	r1, [r3, r2]
	FONT[14][0]=0x00;FONT[14][1]=0x00;FONT[14][2]=0x00;FONT[14][3]=0x60;FONT[14][4]=0x60;FONT[14][5]=0x00;FONT[14][6]=0x00;FONT[14][7]=0x00;//  .
    1184:	4b2e      	ldr	r3, [pc, #184]	; (1240 <OLED_FONT_SETUP+0x400>)
    1186:	2270      	movs	r2, #112	; 0x70
    1188:	2100      	movs	r1, #0
    118a:	5499      	strb	r1, [r3, r2]
    118c:	4b2c      	ldr	r3, [pc, #176]	; (1240 <OLED_FONT_SETUP+0x400>)
    118e:	2271      	movs	r2, #113	; 0x71
    1190:	2100      	movs	r1, #0
    1192:	5499      	strb	r1, [r3, r2]
    1194:	4b2a      	ldr	r3, [pc, #168]	; (1240 <OLED_FONT_SETUP+0x400>)
    1196:	2272      	movs	r2, #114	; 0x72
    1198:	2100      	movs	r1, #0
    119a:	5499      	strb	r1, [r3, r2]
    119c:	4b28      	ldr	r3, [pc, #160]	; (1240 <OLED_FONT_SETUP+0x400>)
    119e:	2273      	movs	r2, #115	; 0x73
    11a0:	2160      	movs	r1, #96	; 0x60
    11a2:	5499      	strb	r1, [r3, r2]
    11a4:	4b26      	ldr	r3, [pc, #152]	; (1240 <OLED_FONT_SETUP+0x400>)
    11a6:	2274      	movs	r2, #116	; 0x74
    11a8:	2160      	movs	r1, #96	; 0x60
    11aa:	5499      	strb	r1, [r3, r2]
    11ac:	4b24      	ldr	r3, [pc, #144]	; (1240 <OLED_FONT_SETUP+0x400>)
    11ae:	2275      	movs	r2, #117	; 0x75
    11b0:	2100      	movs	r1, #0
    11b2:	5499      	strb	r1, [r3, r2]
    11b4:	4b22      	ldr	r3, [pc, #136]	; (1240 <OLED_FONT_SETUP+0x400>)
    11b6:	2276      	movs	r2, #118	; 0x76
    11b8:	2100      	movs	r1, #0
    11ba:	5499      	strb	r1, [r3, r2]
    11bc:	4b20      	ldr	r3, [pc, #128]	; (1240 <OLED_FONT_SETUP+0x400>)
    11be:	2277      	movs	r2, #119	; 0x77
    11c0:	2100      	movs	r1, #0
    11c2:	5499      	strb	r1, [r3, r2]
	FONT[15][0]=0x00;FONT[15][1]=0x40;FONT[15][2]=0x20;FONT[15][3]=0x10;FONT[15][4]=0x08;FONT[15][5]=0x04;FONT[15][6]=0x00;FONT[15][7]=0x00;//  /
    11c4:	4b1e      	ldr	r3, [pc, #120]	; (1240 <OLED_FONT_SETUP+0x400>)
    11c6:	2278      	movs	r2, #120	; 0x78
    11c8:	2100      	movs	r1, #0
    11ca:	5499      	strb	r1, [r3, r2]
    11cc:	4b1c      	ldr	r3, [pc, #112]	; (1240 <OLED_FONT_SETUP+0x400>)
    11ce:	2279      	movs	r2, #121	; 0x79
    11d0:	2140      	movs	r1, #64	; 0x40
    11d2:	5499      	strb	r1, [r3, r2]
    11d4:	4b1a      	ldr	r3, [pc, #104]	; (1240 <OLED_FONT_SETUP+0x400>)
    11d6:	227a      	movs	r2, #122	; 0x7a
    11d8:	2120      	movs	r1, #32
    11da:	5499      	strb	r1, [r3, r2]
    11dc:	4b18      	ldr	r3, [pc, #96]	; (1240 <OLED_FONT_SETUP+0x400>)
    11de:	227b      	movs	r2, #123	; 0x7b
    11e0:	2110      	movs	r1, #16
    11e2:	5499      	strb	r1, [r3, r2]
    11e4:	4b16      	ldr	r3, [pc, #88]	; (1240 <OLED_FONT_SETUP+0x400>)
    11e6:	227c      	movs	r2, #124	; 0x7c
    11e8:	2108      	movs	r1, #8
    11ea:	5499      	strb	r1, [r3, r2]
    11ec:	4b14      	ldr	r3, [pc, #80]	; (1240 <OLED_FONT_SETUP+0x400>)
    11ee:	227d      	movs	r2, #125	; 0x7d
    11f0:	2104      	movs	r1, #4
    11f2:	5499      	strb	r1, [r3, r2]
    11f4:	4b12      	ldr	r3, [pc, #72]	; (1240 <OLED_FONT_SETUP+0x400>)
    11f6:	227e      	movs	r2, #126	; 0x7e
    11f8:	2100      	movs	r1, #0
    11fa:	5499      	strb	r1, [r3, r2]
    11fc:	4b10      	ldr	r3, [pc, #64]	; (1240 <OLED_FONT_SETUP+0x400>)
    11fe:	227f      	movs	r2, #127	; 0x7f
    1200:	2100      	movs	r1, #0
    1202:	5499      	strb	r1, [r3, r2]
	FONT[16][0]=0x00;FONT[16][1]=0x3C;FONT[16][2]=0x62;FONT[16][3]=0x52;FONT[16][4]=0x4A;FONT[16][5]=0x46;FONT[16][6]=0x3C;FONT[16][7]=0x00;//  0
    1204:	4b0e      	ldr	r3, [pc, #56]	; (1240 <OLED_FONT_SETUP+0x400>)
    1206:	2280      	movs	r2, #128	; 0x80
    1208:	2100      	movs	r1, #0
    120a:	5499      	strb	r1, [r3, r2]
    120c:	4b0c      	ldr	r3, [pc, #48]	; (1240 <OLED_FONT_SETUP+0x400>)
    120e:	2281      	movs	r2, #129	; 0x81
    1210:	213c      	movs	r1, #60	; 0x3c
    1212:	5499      	strb	r1, [r3, r2]
    1214:	4b0a      	ldr	r3, [pc, #40]	; (1240 <OLED_FONT_SETUP+0x400>)
    1216:	2282      	movs	r2, #130	; 0x82
    1218:	2162      	movs	r1, #98	; 0x62
    121a:	5499      	strb	r1, [r3, r2]
    121c:	4b08      	ldr	r3, [pc, #32]	; (1240 <OLED_FONT_SETUP+0x400>)
    121e:	2283      	movs	r2, #131	; 0x83
    1220:	2152      	movs	r1, #82	; 0x52
    1222:	5499      	strb	r1, [r3, r2]
    1224:	4b06      	ldr	r3, [pc, #24]	; (1240 <OLED_FONT_SETUP+0x400>)
    1226:	2284      	movs	r2, #132	; 0x84
    1228:	214a      	movs	r1, #74	; 0x4a
    122a:	5499      	strb	r1, [r3, r2]
    122c:	4b04      	ldr	r3, [pc, #16]	; (1240 <OLED_FONT_SETUP+0x400>)
    122e:	2285      	movs	r2, #133	; 0x85
    1230:	2146      	movs	r1, #70	; 0x46
    1232:	5499      	strb	r1, [r3, r2]
    1234:	4b02      	ldr	r3, [pc, #8]	; (1240 <OLED_FONT_SETUP+0x400>)
    1236:	2286      	movs	r2, #134	; 0x86
    1238:	213c      	movs	r1, #60	; 0x3c
    123a:	5499      	strb	r1, [r3, r2]
    123c:	e002      	b.n	1244 <OLED_FONT_SETUP+0x404>
    123e:	46c0      	nop			; (mov r8, r8)
    1240:	2000003c 	.word	0x2000003c
    1244:	4bfe      	ldr	r3, [pc, #1016]	; (1640 <OLED_FONT_SETUP+0x800>)
    1246:	2287      	movs	r2, #135	; 0x87
    1248:	2100      	movs	r1, #0
    124a:	5499      	strb	r1, [r3, r2]
	FONT[17][0]=0x00;FONT[17][1]=0x44;FONT[17][2]=0x42;FONT[17][3]=0x7E;FONT[17][4]=0x40;FONT[17][5]=0x40;FONT[17][6]=0x00;FONT[17][7]=0x00;//  1
    124c:	4bfc      	ldr	r3, [pc, #1008]	; (1640 <OLED_FONT_SETUP+0x800>)
    124e:	2288      	movs	r2, #136	; 0x88
    1250:	2100      	movs	r1, #0
    1252:	5499      	strb	r1, [r3, r2]
    1254:	4bfa      	ldr	r3, [pc, #1000]	; (1640 <OLED_FONT_SETUP+0x800>)
    1256:	2289      	movs	r2, #137	; 0x89
    1258:	2144      	movs	r1, #68	; 0x44
    125a:	5499      	strb	r1, [r3, r2]
    125c:	4bf8      	ldr	r3, [pc, #992]	; (1640 <OLED_FONT_SETUP+0x800>)
    125e:	228a      	movs	r2, #138	; 0x8a
    1260:	2142      	movs	r1, #66	; 0x42
    1262:	5499      	strb	r1, [r3, r2]
    1264:	4bf6      	ldr	r3, [pc, #984]	; (1640 <OLED_FONT_SETUP+0x800>)
    1266:	228b      	movs	r2, #139	; 0x8b
    1268:	217e      	movs	r1, #126	; 0x7e
    126a:	5499      	strb	r1, [r3, r2]
    126c:	4bf4      	ldr	r3, [pc, #976]	; (1640 <OLED_FONT_SETUP+0x800>)
    126e:	228c      	movs	r2, #140	; 0x8c
    1270:	2140      	movs	r1, #64	; 0x40
    1272:	5499      	strb	r1, [r3, r2]
    1274:	4bf2      	ldr	r3, [pc, #968]	; (1640 <OLED_FONT_SETUP+0x800>)
    1276:	228d      	movs	r2, #141	; 0x8d
    1278:	2140      	movs	r1, #64	; 0x40
    127a:	5499      	strb	r1, [r3, r2]
    127c:	4bf0      	ldr	r3, [pc, #960]	; (1640 <OLED_FONT_SETUP+0x800>)
    127e:	228e      	movs	r2, #142	; 0x8e
    1280:	2100      	movs	r1, #0
    1282:	5499      	strb	r1, [r3, r2]
    1284:	4bee      	ldr	r3, [pc, #952]	; (1640 <OLED_FONT_SETUP+0x800>)
    1286:	228f      	movs	r2, #143	; 0x8f
    1288:	2100      	movs	r1, #0
    128a:	5499      	strb	r1, [r3, r2]
	FONT[18][0]=0x00;FONT[18][1]=0x64;FONT[18][2]=0x52;FONT[18][3]=0x52;FONT[18][4]=0x52;FONT[18][5]=0x52;FONT[18][6]=0x4C;FONT[18][7]=0x00;//  2
    128c:	4bec      	ldr	r3, [pc, #944]	; (1640 <OLED_FONT_SETUP+0x800>)
    128e:	2290      	movs	r2, #144	; 0x90
    1290:	2100      	movs	r1, #0
    1292:	5499      	strb	r1, [r3, r2]
    1294:	4bea      	ldr	r3, [pc, #936]	; (1640 <OLED_FONT_SETUP+0x800>)
    1296:	2291      	movs	r2, #145	; 0x91
    1298:	2164      	movs	r1, #100	; 0x64
    129a:	5499      	strb	r1, [r3, r2]
    129c:	4be8      	ldr	r3, [pc, #928]	; (1640 <OLED_FONT_SETUP+0x800>)
    129e:	2292      	movs	r2, #146	; 0x92
    12a0:	2152      	movs	r1, #82	; 0x52
    12a2:	5499      	strb	r1, [r3, r2]
    12a4:	4be6      	ldr	r3, [pc, #920]	; (1640 <OLED_FONT_SETUP+0x800>)
    12a6:	2293      	movs	r2, #147	; 0x93
    12a8:	2152      	movs	r1, #82	; 0x52
    12aa:	5499      	strb	r1, [r3, r2]
    12ac:	4be4      	ldr	r3, [pc, #912]	; (1640 <OLED_FONT_SETUP+0x800>)
    12ae:	2294      	movs	r2, #148	; 0x94
    12b0:	2152      	movs	r1, #82	; 0x52
    12b2:	5499      	strb	r1, [r3, r2]
    12b4:	4be2      	ldr	r3, [pc, #904]	; (1640 <OLED_FONT_SETUP+0x800>)
    12b6:	2295      	movs	r2, #149	; 0x95
    12b8:	2152      	movs	r1, #82	; 0x52
    12ba:	5499      	strb	r1, [r3, r2]
    12bc:	4be0      	ldr	r3, [pc, #896]	; (1640 <OLED_FONT_SETUP+0x800>)
    12be:	2296      	movs	r2, #150	; 0x96
    12c0:	214c      	movs	r1, #76	; 0x4c
    12c2:	5499      	strb	r1, [r3, r2]
    12c4:	4bde      	ldr	r3, [pc, #888]	; (1640 <OLED_FONT_SETUP+0x800>)
    12c6:	2297      	movs	r2, #151	; 0x97
    12c8:	2100      	movs	r1, #0
    12ca:	5499      	strb	r1, [r3, r2]
	FONT[19][0]=0x00;FONT[19][1]=0x24;FONT[19][2]=0x42;FONT[19][3]=0x42;FONT[19][4]=0x4A;FONT[19][5]=0x4A;FONT[19][6]=0x34;FONT[19][7]=0x00;//  3
    12cc:	4bdc      	ldr	r3, [pc, #880]	; (1640 <OLED_FONT_SETUP+0x800>)
    12ce:	2298      	movs	r2, #152	; 0x98
    12d0:	2100      	movs	r1, #0
    12d2:	5499      	strb	r1, [r3, r2]
    12d4:	4bda      	ldr	r3, [pc, #872]	; (1640 <OLED_FONT_SETUP+0x800>)
    12d6:	2299      	movs	r2, #153	; 0x99
    12d8:	2124      	movs	r1, #36	; 0x24
    12da:	5499      	strb	r1, [r3, r2]
    12dc:	4bd8      	ldr	r3, [pc, #864]	; (1640 <OLED_FONT_SETUP+0x800>)
    12de:	229a      	movs	r2, #154	; 0x9a
    12e0:	2142      	movs	r1, #66	; 0x42
    12e2:	5499      	strb	r1, [r3, r2]
    12e4:	4bd6      	ldr	r3, [pc, #856]	; (1640 <OLED_FONT_SETUP+0x800>)
    12e6:	229b      	movs	r2, #155	; 0x9b
    12e8:	2142      	movs	r1, #66	; 0x42
    12ea:	5499      	strb	r1, [r3, r2]
    12ec:	4bd4      	ldr	r3, [pc, #848]	; (1640 <OLED_FONT_SETUP+0x800>)
    12ee:	229c      	movs	r2, #156	; 0x9c
    12f0:	214a      	movs	r1, #74	; 0x4a
    12f2:	5499      	strb	r1, [r3, r2]
    12f4:	4bd2      	ldr	r3, [pc, #840]	; (1640 <OLED_FONT_SETUP+0x800>)
    12f6:	229d      	movs	r2, #157	; 0x9d
    12f8:	214a      	movs	r1, #74	; 0x4a
    12fa:	5499      	strb	r1, [r3, r2]
    12fc:	4bd0      	ldr	r3, [pc, #832]	; (1640 <OLED_FONT_SETUP+0x800>)
    12fe:	229e      	movs	r2, #158	; 0x9e
    1300:	2134      	movs	r1, #52	; 0x34
    1302:	5499      	strb	r1, [r3, r2]
    1304:	4bce      	ldr	r3, [pc, #824]	; (1640 <OLED_FONT_SETUP+0x800>)
    1306:	229f      	movs	r2, #159	; 0x9f
    1308:	2100      	movs	r1, #0
    130a:	5499      	strb	r1, [r3, r2]
	FONT[20][0]=0x00;FONT[20][1]=0x30;FONT[20][2]=0x28;FONT[20][3]=0x24;FONT[20][4]=0x7E;FONT[20][5]=0x20;FONT[20][6]=0x20;FONT[20][7]=0x00;//  4
    130c:	4bcc      	ldr	r3, [pc, #816]	; (1640 <OLED_FONT_SETUP+0x800>)
    130e:	22a0      	movs	r2, #160	; 0xa0
    1310:	2100      	movs	r1, #0
    1312:	5499      	strb	r1, [r3, r2]
    1314:	4bca      	ldr	r3, [pc, #808]	; (1640 <OLED_FONT_SETUP+0x800>)
    1316:	22a1      	movs	r2, #161	; 0xa1
    1318:	2130      	movs	r1, #48	; 0x30
    131a:	5499      	strb	r1, [r3, r2]
    131c:	4bc8      	ldr	r3, [pc, #800]	; (1640 <OLED_FONT_SETUP+0x800>)
    131e:	22a2      	movs	r2, #162	; 0xa2
    1320:	2128      	movs	r1, #40	; 0x28
    1322:	5499      	strb	r1, [r3, r2]
    1324:	4bc6      	ldr	r3, [pc, #792]	; (1640 <OLED_FONT_SETUP+0x800>)
    1326:	22a3      	movs	r2, #163	; 0xa3
    1328:	2124      	movs	r1, #36	; 0x24
    132a:	5499      	strb	r1, [r3, r2]
    132c:	4bc4      	ldr	r3, [pc, #784]	; (1640 <OLED_FONT_SETUP+0x800>)
    132e:	22a4      	movs	r2, #164	; 0xa4
    1330:	217e      	movs	r1, #126	; 0x7e
    1332:	5499      	strb	r1, [r3, r2]
    1334:	4bc2      	ldr	r3, [pc, #776]	; (1640 <OLED_FONT_SETUP+0x800>)
    1336:	22a5      	movs	r2, #165	; 0xa5
    1338:	2120      	movs	r1, #32
    133a:	5499      	strb	r1, [r3, r2]
    133c:	4bc0      	ldr	r3, [pc, #768]	; (1640 <OLED_FONT_SETUP+0x800>)
    133e:	22a6      	movs	r2, #166	; 0xa6
    1340:	2120      	movs	r1, #32
    1342:	5499      	strb	r1, [r3, r2]
    1344:	4bbe      	ldr	r3, [pc, #760]	; (1640 <OLED_FONT_SETUP+0x800>)
    1346:	22a7      	movs	r2, #167	; 0xa7
    1348:	2100      	movs	r1, #0
    134a:	5499      	strb	r1, [r3, r2]
	FONT[21][0]=0x00;FONT[21][1]=0x2E;FONT[21][2]=0x4A;FONT[21][3]=0x4A;FONT[21][4]=0x4A;FONT[21][5]=0x4A;FONT[21][6]=0x32;FONT[21][7]=0x00;//  5
    134c:	4bbc      	ldr	r3, [pc, #752]	; (1640 <OLED_FONT_SETUP+0x800>)
    134e:	22a8      	movs	r2, #168	; 0xa8
    1350:	2100      	movs	r1, #0
    1352:	5499      	strb	r1, [r3, r2]
    1354:	4bba      	ldr	r3, [pc, #744]	; (1640 <OLED_FONT_SETUP+0x800>)
    1356:	22a9      	movs	r2, #169	; 0xa9
    1358:	212e      	movs	r1, #46	; 0x2e
    135a:	5499      	strb	r1, [r3, r2]
    135c:	4bb8      	ldr	r3, [pc, #736]	; (1640 <OLED_FONT_SETUP+0x800>)
    135e:	22aa      	movs	r2, #170	; 0xaa
    1360:	214a      	movs	r1, #74	; 0x4a
    1362:	5499      	strb	r1, [r3, r2]
    1364:	4bb6      	ldr	r3, [pc, #728]	; (1640 <OLED_FONT_SETUP+0x800>)
    1366:	22ab      	movs	r2, #171	; 0xab
    1368:	214a      	movs	r1, #74	; 0x4a
    136a:	5499      	strb	r1, [r3, r2]
    136c:	4bb4      	ldr	r3, [pc, #720]	; (1640 <OLED_FONT_SETUP+0x800>)
    136e:	22ac      	movs	r2, #172	; 0xac
    1370:	214a      	movs	r1, #74	; 0x4a
    1372:	5499      	strb	r1, [r3, r2]
    1374:	4bb2      	ldr	r3, [pc, #712]	; (1640 <OLED_FONT_SETUP+0x800>)
    1376:	22ad      	movs	r2, #173	; 0xad
    1378:	214a      	movs	r1, #74	; 0x4a
    137a:	5499      	strb	r1, [r3, r2]
    137c:	4bb0      	ldr	r3, [pc, #704]	; (1640 <OLED_FONT_SETUP+0x800>)
    137e:	22ae      	movs	r2, #174	; 0xae
    1380:	2132      	movs	r1, #50	; 0x32
    1382:	5499      	strb	r1, [r3, r2]
    1384:	4bae      	ldr	r3, [pc, #696]	; (1640 <OLED_FONT_SETUP+0x800>)
    1386:	22af      	movs	r2, #175	; 0xaf
    1388:	2100      	movs	r1, #0
    138a:	5499      	strb	r1, [r3, r2]
	FONT[22][0]=0x00;FONT[22][1]=0x3C;FONT[22][2]=0x4A;FONT[22][3]=0x4A;FONT[22][4]=0x4A;FONT[22][5]=0x4A;FONT[22][6]=0x30;FONT[22][7]=0x00;//  6
    138c:	4bac      	ldr	r3, [pc, #688]	; (1640 <OLED_FONT_SETUP+0x800>)
    138e:	22b0      	movs	r2, #176	; 0xb0
    1390:	2100      	movs	r1, #0
    1392:	5499      	strb	r1, [r3, r2]
    1394:	4baa      	ldr	r3, [pc, #680]	; (1640 <OLED_FONT_SETUP+0x800>)
    1396:	22b1      	movs	r2, #177	; 0xb1
    1398:	213c      	movs	r1, #60	; 0x3c
    139a:	5499      	strb	r1, [r3, r2]
    139c:	4ba8      	ldr	r3, [pc, #672]	; (1640 <OLED_FONT_SETUP+0x800>)
    139e:	22b2      	movs	r2, #178	; 0xb2
    13a0:	214a      	movs	r1, #74	; 0x4a
    13a2:	5499      	strb	r1, [r3, r2]
    13a4:	4ba6      	ldr	r3, [pc, #664]	; (1640 <OLED_FONT_SETUP+0x800>)
    13a6:	22b3      	movs	r2, #179	; 0xb3
    13a8:	214a      	movs	r1, #74	; 0x4a
    13aa:	5499      	strb	r1, [r3, r2]
    13ac:	4ba4      	ldr	r3, [pc, #656]	; (1640 <OLED_FONT_SETUP+0x800>)
    13ae:	22b4      	movs	r2, #180	; 0xb4
    13b0:	214a      	movs	r1, #74	; 0x4a
    13b2:	5499      	strb	r1, [r3, r2]
    13b4:	4ba2      	ldr	r3, [pc, #648]	; (1640 <OLED_FONT_SETUP+0x800>)
    13b6:	22b5      	movs	r2, #181	; 0xb5
    13b8:	214a      	movs	r1, #74	; 0x4a
    13ba:	5499      	strb	r1, [r3, r2]
    13bc:	4ba0      	ldr	r3, [pc, #640]	; (1640 <OLED_FONT_SETUP+0x800>)
    13be:	22b6      	movs	r2, #182	; 0xb6
    13c0:	2130      	movs	r1, #48	; 0x30
    13c2:	5499      	strb	r1, [r3, r2]
    13c4:	4b9e      	ldr	r3, [pc, #632]	; (1640 <OLED_FONT_SETUP+0x800>)
    13c6:	22b7      	movs	r2, #183	; 0xb7
    13c8:	2100      	movs	r1, #0
    13ca:	5499      	strb	r1, [r3, r2]
	FONT[23][0]=0x00;FONT[23][1]=0x02;FONT[23][2]=0x02;FONT[23][3]=0x62;FONT[23][4]=0x12;FONT[23][5]=0x0A;FONT[23][6]=0x06;FONT[23][7]=0x00;//  7
    13cc:	4b9c      	ldr	r3, [pc, #624]	; (1640 <OLED_FONT_SETUP+0x800>)
    13ce:	22b8      	movs	r2, #184	; 0xb8
    13d0:	2100      	movs	r1, #0
    13d2:	5499      	strb	r1, [r3, r2]
    13d4:	4b9a      	ldr	r3, [pc, #616]	; (1640 <OLED_FONT_SETUP+0x800>)
    13d6:	22b9      	movs	r2, #185	; 0xb9
    13d8:	2102      	movs	r1, #2
    13da:	5499      	strb	r1, [r3, r2]
    13dc:	4b98      	ldr	r3, [pc, #608]	; (1640 <OLED_FONT_SETUP+0x800>)
    13de:	22ba      	movs	r2, #186	; 0xba
    13e0:	2102      	movs	r1, #2
    13e2:	5499      	strb	r1, [r3, r2]
    13e4:	4b96      	ldr	r3, [pc, #600]	; (1640 <OLED_FONT_SETUP+0x800>)
    13e6:	22bb      	movs	r2, #187	; 0xbb
    13e8:	2162      	movs	r1, #98	; 0x62
    13ea:	5499      	strb	r1, [r3, r2]
    13ec:	4b94      	ldr	r3, [pc, #592]	; (1640 <OLED_FONT_SETUP+0x800>)
    13ee:	22bc      	movs	r2, #188	; 0xbc
    13f0:	2112      	movs	r1, #18
    13f2:	5499      	strb	r1, [r3, r2]
    13f4:	4b92      	ldr	r3, [pc, #584]	; (1640 <OLED_FONT_SETUP+0x800>)
    13f6:	22bd      	movs	r2, #189	; 0xbd
    13f8:	210a      	movs	r1, #10
    13fa:	5499      	strb	r1, [r3, r2]
    13fc:	4b90      	ldr	r3, [pc, #576]	; (1640 <OLED_FONT_SETUP+0x800>)
    13fe:	22be      	movs	r2, #190	; 0xbe
    1400:	2106      	movs	r1, #6
    1402:	5499      	strb	r1, [r3, r2]
    1404:	4b8e      	ldr	r3, [pc, #568]	; (1640 <OLED_FONT_SETUP+0x800>)
    1406:	22bf      	movs	r2, #191	; 0xbf
    1408:	2100      	movs	r1, #0
    140a:	5499      	strb	r1, [r3, r2]
	FONT[24][0]=0x00;FONT[24][1]=0x34;FONT[24][2]=0x4A;FONT[24][3]=0x4A;FONT[24][4]=0x4A;FONT[24][5]=0x4A;FONT[24][6]=0x34;FONT[24][7]=0x00;//  8
    140c:	4b8c      	ldr	r3, [pc, #560]	; (1640 <OLED_FONT_SETUP+0x800>)
    140e:	22c0      	movs	r2, #192	; 0xc0
    1410:	2100      	movs	r1, #0
    1412:	5499      	strb	r1, [r3, r2]
    1414:	4b8a      	ldr	r3, [pc, #552]	; (1640 <OLED_FONT_SETUP+0x800>)
    1416:	22c1      	movs	r2, #193	; 0xc1
    1418:	2134      	movs	r1, #52	; 0x34
    141a:	5499      	strb	r1, [r3, r2]
    141c:	4b88      	ldr	r3, [pc, #544]	; (1640 <OLED_FONT_SETUP+0x800>)
    141e:	22c2      	movs	r2, #194	; 0xc2
    1420:	214a      	movs	r1, #74	; 0x4a
    1422:	5499      	strb	r1, [r3, r2]
    1424:	4b86      	ldr	r3, [pc, #536]	; (1640 <OLED_FONT_SETUP+0x800>)
    1426:	22c3      	movs	r2, #195	; 0xc3
    1428:	214a      	movs	r1, #74	; 0x4a
    142a:	5499      	strb	r1, [r3, r2]
    142c:	4b84      	ldr	r3, [pc, #528]	; (1640 <OLED_FONT_SETUP+0x800>)
    142e:	22c4      	movs	r2, #196	; 0xc4
    1430:	214a      	movs	r1, #74	; 0x4a
    1432:	5499      	strb	r1, [r3, r2]
    1434:	4b82      	ldr	r3, [pc, #520]	; (1640 <OLED_FONT_SETUP+0x800>)
    1436:	22c5      	movs	r2, #197	; 0xc5
    1438:	214a      	movs	r1, #74	; 0x4a
    143a:	5499      	strb	r1, [r3, r2]
    143c:	4b80      	ldr	r3, [pc, #512]	; (1640 <OLED_FONT_SETUP+0x800>)
    143e:	22c6      	movs	r2, #198	; 0xc6
    1440:	2134      	movs	r1, #52	; 0x34
    1442:	5499      	strb	r1, [r3, r2]
    1444:	4b7e      	ldr	r3, [pc, #504]	; (1640 <OLED_FONT_SETUP+0x800>)
    1446:	22c7      	movs	r2, #199	; 0xc7
    1448:	2100      	movs	r1, #0
    144a:	5499      	strb	r1, [r3, r2]
	FONT[25][0]=0x00;FONT[25][1]=0x0C;FONT[25][2]=0x52;FONT[25][3]=0x52;FONT[25][4]=0x52;FONT[25][5]=0x52;FONT[25][6]=0x3C;FONT[25][7]=0x00;//  9
    144c:	4b7c      	ldr	r3, [pc, #496]	; (1640 <OLED_FONT_SETUP+0x800>)
    144e:	22c8      	movs	r2, #200	; 0xc8
    1450:	2100      	movs	r1, #0
    1452:	5499      	strb	r1, [r3, r2]
    1454:	4b7a      	ldr	r3, [pc, #488]	; (1640 <OLED_FONT_SETUP+0x800>)
    1456:	22c9      	movs	r2, #201	; 0xc9
    1458:	210c      	movs	r1, #12
    145a:	5499      	strb	r1, [r3, r2]
    145c:	4b78      	ldr	r3, [pc, #480]	; (1640 <OLED_FONT_SETUP+0x800>)
    145e:	22ca      	movs	r2, #202	; 0xca
    1460:	2152      	movs	r1, #82	; 0x52
    1462:	5499      	strb	r1, [r3, r2]
    1464:	4b76      	ldr	r3, [pc, #472]	; (1640 <OLED_FONT_SETUP+0x800>)
    1466:	22cb      	movs	r2, #203	; 0xcb
    1468:	2152      	movs	r1, #82	; 0x52
    146a:	5499      	strb	r1, [r3, r2]
    146c:	4b74      	ldr	r3, [pc, #464]	; (1640 <OLED_FONT_SETUP+0x800>)
    146e:	22cc      	movs	r2, #204	; 0xcc
    1470:	2152      	movs	r1, #82	; 0x52
    1472:	5499      	strb	r1, [r3, r2]
    1474:	4b72      	ldr	r3, [pc, #456]	; (1640 <OLED_FONT_SETUP+0x800>)
    1476:	22cd      	movs	r2, #205	; 0xcd
    1478:	2152      	movs	r1, #82	; 0x52
    147a:	5499      	strb	r1, [r3, r2]
    147c:	4b70      	ldr	r3, [pc, #448]	; (1640 <OLED_FONT_SETUP+0x800>)
    147e:	22ce      	movs	r2, #206	; 0xce
    1480:	213c      	movs	r1, #60	; 0x3c
    1482:	5499      	strb	r1, [r3, r2]
    1484:	4b6e      	ldr	r3, [pc, #440]	; (1640 <OLED_FONT_SETUP+0x800>)
    1486:	22cf      	movs	r2, #207	; 0xcf
    1488:	2100      	movs	r1, #0
    148a:	5499      	strb	r1, [r3, r2]
	FONT[26][0]=0x00;FONT[26][1]=0x00;FONT[26][2]=0x00;FONT[26][3]=0x48;FONT[26][4]=0x00;FONT[26][5]=0x00;FONT[26][6]=0x00;FONT[26][7]=0x00;//  :
    148c:	4b6c      	ldr	r3, [pc, #432]	; (1640 <OLED_FONT_SETUP+0x800>)
    148e:	22d0      	movs	r2, #208	; 0xd0
    1490:	2100      	movs	r1, #0
    1492:	5499      	strb	r1, [r3, r2]
    1494:	4b6a      	ldr	r3, [pc, #424]	; (1640 <OLED_FONT_SETUP+0x800>)
    1496:	22d1      	movs	r2, #209	; 0xd1
    1498:	2100      	movs	r1, #0
    149a:	5499      	strb	r1, [r3, r2]
    149c:	4b68      	ldr	r3, [pc, #416]	; (1640 <OLED_FONT_SETUP+0x800>)
    149e:	22d2      	movs	r2, #210	; 0xd2
    14a0:	2100      	movs	r1, #0
    14a2:	5499      	strb	r1, [r3, r2]
    14a4:	4b66      	ldr	r3, [pc, #408]	; (1640 <OLED_FONT_SETUP+0x800>)
    14a6:	22d3      	movs	r2, #211	; 0xd3
    14a8:	2148      	movs	r1, #72	; 0x48
    14aa:	5499      	strb	r1, [r3, r2]
    14ac:	4b64      	ldr	r3, [pc, #400]	; (1640 <OLED_FONT_SETUP+0x800>)
    14ae:	22d4      	movs	r2, #212	; 0xd4
    14b0:	2100      	movs	r1, #0
    14b2:	5499      	strb	r1, [r3, r2]
    14b4:	4b62      	ldr	r3, [pc, #392]	; (1640 <OLED_FONT_SETUP+0x800>)
    14b6:	22d5      	movs	r2, #213	; 0xd5
    14b8:	2100      	movs	r1, #0
    14ba:	5499      	strb	r1, [r3, r2]
    14bc:	4b60      	ldr	r3, [pc, #384]	; (1640 <OLED_FONT_SETUP+0x800>)
    14be:	22d6      	movs	r2, #214	; 0xd6
    14c0:	2100      	movs	r1, #0
    14c2:	5499      	strb	r1, [r3, r2]
    14c4:	4b5e      	ldr	r3, [pc, #376]	; (1640 <OLED_FONT_SETUP+0x800>)
    14c6:	22d7      	movs	r2, #215	; 0xd7
    14c8:	2100      	movs	r1, #0
    14ca:	5499      	strb	r1, [r3, r2]
	FONT[27][0]=0x00;FONT[27][1]=0x00;FONT[27][2]=0x00;FONT[27][3]=0x80;FONT[27][4]=0x64;FONT[27][5]=0x00;FONT[27][6]=0x00;FONT[27][7]=0x00;//  ;
    14cc:	4b5c      	ldr	r3, [pc, #368]	; (1640 <OLED_FONT_SETUP+0x800>)
    14ce:	22d8      	movs	r2, #216	; 0xd8
    14d0:	2100      	movs	r1, #0
    14d2:	5499      	strb	r1, [r3, r2]
    14d4:	4b5a      	ldr	r3, [pc, #360]	; (1640 <OLED_FONT_SETUP+0x800>)
    14d6:	22d9      	movs	r2, #217	; 0xd9
    14d8:	2100      	movs	r1, #0
    14da:	5499      	strb	r1, [r3, r2]
    14dc:	4b58      	ldr	r3, [pc, #352]	; (1640 <OLED_FONT_SETUP+0x800>)
    14de:	22da      	movs	r2, #218	; 0xda
    14e0:	2100      	movs	r1, #0
    14e2:	5499      	strb	r1, [r3, r2]
    14e4:	4b56      	ldr	r3, [pc, #344]	; (1640 <OLED_FONT_SETUP+0x800>)
    14e6:	22db      	movs	r2, #219	; 0xdb
    14e8:	2180      	movs	r1, #128	; 0x80
    14ea:	5499      	strb	r1, [r3, r2]
    14ec:	4b54      	ldr	r3, [pc, #336]	; (1640 <OLED_FONT_SETUP+0x800>)
    14ee:	22dc      	movs	r2, #220	; 0xdc
    14f0:	2164      	movs	r1, #100	; 0x64
    14f2:	5499      	strb	r1, [r3, r2]
    14f4:	4b52      	ldr	r3, [pc, #328]	; (1640 <OLED_FONT_SETUP+0x800>)
    14f6:	22dd      	movs	r2, #221	; 0xdd
    14f8:	2100      	movs	r1, #0
    14fa:	5499      	strb	r1, [r3, r2]
    14fc:	4b50      	ldr	r3, [pc, #320]	; (1640 <OLED_FONT_SETUP+0x800>)
    14fe:	22de      	movs	r2, #222	; 0xde
    1500:	2100      	movs	r1, #0
    1502:	5499      	strb	r1, [r3, r2]
    1504:	4b4e      	ldr	r3, [pc, #312]	; (1640 <OLED_FONT_SETUP+0x800>)
    1506:	22df      	movs	r2, #223	; 0xdf
    1508:	2100      	movs	r1, #0
    150a:	5499      	strb	r1, [r3, r2]
	FONT[28][0]=0x00;FONT[28][1]=0x00;FONT[28][2]=0x10;FONT[28][3]=0x28;FONT[28][4]=0x44;FONT[28][5]=0x00;FONT[28][6]=0x00;FONT[28][7]=0x00;//  <
    150c:	4b4c      	ldr	r3, [pc, #304]	; (1640 <OLED_FONT_SETUP+0x800>)
    150e:	22e0      	movs	r2, #224	; 0xe0
    1510:	2100      	movs	r1, #0
    1512:	5499      	strb	r1, [r3, r2]
    1514:	4b4a      	ldr	r3, [pc, #296]	; (1640 <OLED_FONT_SETUP+0x800>)
    1516:	22e1      	movs	r2, #225	; 0xe1
    1518:	2100      	movs	r1, #0
    151a:	5499      	strb	r1, [r3, r2]
    151c:	4b48      	ldr	r3, [pc, #288]	; (1640 <OLED_FONT_SETUP+0x800>)
    151e:	22e2      	movs	r2, #226	; 0xe2
    1520:	2110      	movs	r1, #16
    1522:	5499      	strb	r1, [r3, r2]
    1524:	4b46      	ldr	r3, [pc, #280]	; (1640 <OLED_FONT_SETUP+0x800>)
    1526:	22e3      	movs	r2, #227	; 0xe3
    1528:	2128      	movs	r1, #40	; 0x28
    152a:	5499      	strb	r1, [r3, r2]
    152c:	4b44      	ldr	r3, [pc, #272]	; (1640 <OLED_FONT_SETUP+0x800>)
    152e:	22e4      	movs	r2, #228	; 0xe4
    1530:	2144      	movs	r1, #68	; 0x44
    1532:	5499      	strb	r1, [r3, r2]
    1534:	4b42      	ldr	r3, [pc, #264]	; (1640 <OLED_FONT_SETUP+0x800>)
    1536:	22e5      	movs	r2, #229	; 0xe5
    1538:	2100      	movs	r1, #0
    153a:	5499      	strb	r1, [r3, r2]
    153c:	4b40      	ldr	r3, [pc, #256]	; (1640 <OLED_FONT_SETUP+0x800>)
    153e:	22e6      	movs	r2, #230	; 0xe6
    1540:	2100      	movs	r1, #0
    1542:	5499      	strb	r1, [r3, r2]
    1544:	4b3e      	ldr	r3, [pc, #248]	; (1640 <OLED_FONT_SETUP+0x800>)
    1546:	22e7      	movs	r2, #231	; 0xe7
    1548:	2100      	movs	r1, #0
    154a:	5499      	strb	r1, [r3, r2]
	FONT[29][0]=0x00;FONT[29][1]=0x28;FONT[29][2]=0x28;FONT[29][3]=0x28;FONT[29][4]=0x28;FONT[29][5]=0x28;FONT[29][6]=0x00;FONT[29][7]=0x00;//  =
    154c:	4b3c      	ldr	r3, [pc, #240]	; (1640 <OLED_FONT_SETUP+0x800>)
    154e:	22e8      	movs	r2, #232	; 0xe8
    1550:	2100      	movs	r1, #0
    1552:	5499      	strb	r1, [r3, r2]
    1554:	4b3a      	ldr	r3, [pc, #232]	; (1640 <OLED_FONT_SETUP+0x800>)
    1556:	22e9      	movs	r2, #233	; 0xe9
    1558:	2128      	movs	r1, #40	; 0x28
    155a:	5499      	strb	r1, [r3, r2]
    155c:	4b38      	ldr	r3, [pc, #224]	; (1640 <OLED_FONT_SETUP+0x800>)
    155e:	22ea      	movs	r2, #234	; 0xea
    1560:	2128      	movs	r1, #40	; 0x28
    1562:	5499      	strb	r1, [r3, r2]
    1564:	4b36      	ldr	r3, [pc, #216]	; (1640 <OLED_FONT_SETUP+0x800>)
    1566:	22eb      	movs	r2, #235	; 0xeb
    1568:	2128      	movs	r1, #40	; 0x28
    156a:	5499      	strb	r1, [r3, r2]
    156c:	4b34      	ldr	r3, [pc, #208]	; (1640 <OLED_FONT_SETUP+0x800>)
    156e:	22ec      	movs	r2, #236	; 0xec
    1570:	2128      	movs	r1, #40	; 0x28
    1572:	5499      	strb	r1, [r3, r2]
    1574:	4b32      	ldr	r3, [pc, #200]	; (1640 <OLED_FONT_SETUP+0x800>)
    1576:	22ed      	movs	r2, #237	; 0xed
    1578:	2128      	movs	r1, #40	; 0x28
    157a:	5499      	strb	r1, [r3, r2]
    157c:	4b30      	ldr	r3, [pc, #192]	; (1640 <OLED_FONT_SETUP+0x800>)
    157e:	22ee      	movs	r2, #238	; 0xee
    1580:	2100      	movs	r1, #0
    1582:	5499      	strb	r1, [r3, r2]
    1584:	4b2e      	ldr	r3, [pc, #184]	; (1640 <OLED_FONT_SETUP+0x800>)
    1586:	22ef      	movs	r2, #239	; 0xef
    1588:	2100      	movs	r1, #0
    158a:	5499      	strb	r1, [r3, r2]
	FONT[30][0]=0x00;FONT[30][1]=0x00;FONT[30][2]=0x44;FONT[30][3]=0x28;FONT[30][4]=0x10;FONT[30][5]=0x00;FONT[30][6]=0x00;FONT[30][7]=0x00;//  >
    158c:	4b2c      	ldr	r3, [pc, #176]	; (1640 <OLED_FONT_SETUP+0x800>)
    158e:	22f0      	movs	r2, #240	; 0xf0
    1590:	2100      	movs	r1, #0
    1592:	5499      	strb	r1, [r3, r2]
    1594:	4b2a      	ldr	r3, [pc, #168]	; (1640 <OLED_FONT_SETUP+0x800>)
    1596:	22f1      	movs	r2, #241	; 0xf1
    1598:	2100      	movs	r1, #0
    159a:	5499      	strb	r1, [r3, r2]
    159c:	4b28      	ldr	r3, [pc, #160]	; (1640 <OLED_FONT_SETUP+0x800>)
    159e:	22f2      	movs	r2, #242	; 0xf2
    15a0:	2144      	movs	r1, #68	; 0x44
    15a2:	5499      	strb	r1, [r3, r2]
    15a4:	4b26      	ldr	r3, [pc, #152]	; (1640 <OLED_FONT_SETUP+0x800>)
    15a6:	22f3      	movs	r2, #243	; 0xf3
    15a8:	2128      	movs	r1, #40	; 0x28
    15aa:	5499      	strb	r1, [r3, r2]
    15ac:	4b24      	ldr	r3, [pc, #144]	; (1640 <OLED_FONT_SETUP+0x800>)
    15ae:	22f4      	movs	r2, #244	; 0xf4
    15b0:	2110      	movs	r1, #16
    15b2:	5499      	strb	r1, [r3, r2]
    15b4:	4b22      	ldr	r3, [pc, #136]	; (1640 <OLED_FONT_SETUP+0x800>)
    15b6:	22f5      	movs	r2, #245	; 0xf5
    15b8:	2100      	movs	r1, #0
    15ba:	5499      	strb	r1, [r3, r2]
    15bc:	4b20      	ldr	r3, [pc, #128]	; (1640 <OLED_FONT_SETUP+0x800>)
    15be:	22f6      	movs	r2, #246	; 0xf6
    15c0:	2100      	movs	r1, #0
    15c2:	5499      	strb	r1, [r3, r2]
    15c4:	4b1e      	ldr	r3, [pc, #120]	; (1640 <OLED_FONT_SETUP+0x800>)
    15c6:	22f7      	movs	r2, #247	; 0xf7
    15c8:	2100      	movs	r1, #0
    15ca:	5499      	strb	r1, [r3, r2]
	FONT[31][0]=0x00;FONT[31][1]=0x04;FONT[31][2]=0x02;FONT[31][3]=0x02;FONT[31][4]=0x52;FONT[31][5]=0x0A;FONT[31][6]=0x04;FONT[31][7]=0x00;//  ?
    15cc:	4b1c      	ldr	r3, [pc, #112]	; (1640 <OLED_FONT_SETUP+0x800>)
    15ce:	22f8      	movs	r2, #248	; 0xf8
    15d0:	2100      	movs	r1, #0
    15d2:	5499      	strb	r1, [r3, r2]
    15d4:	4b1a      	ldr	r3, [pc, #104]	; (1640 <OLED_FONT_SETUP+0x800>)
    15d6:	22f9      	movs	r2, #249	; 0xf9
    15d8:	2104      	movs	r1, #4
    15da:	5499      	strb	r1, [r3, r2]
    15dc:	4b18      	ldr	r3, [pc, #96]	; (1640 <OLED_FONT_SETUP+0x800>)
    15de:	22fa      	movs	r2, #250	; 0xfa
    15e0:	2102      	movs	r1, #2
    15e2:	5499      	strb	r1, [r3, r2]
    15e4:	4b16      	ldr	r3, [pc, #88]	; (1640 <OLED_FONT_SETUP+0x800>)
    15e6:	22fb      	movs	r2, #251	; 0xfb
    15e8:	2102      	movs	r1, #2
    15ea:	5499      	strb	r1, [r3, r2]
    15ec:	4b14      	ldr	r3, [pc, #80]	; (1640 <OLED_FONT_SETUP+0x800>)
    15ee:	22fc      	movs	r2, #252	; 0xfc
    15f0:	2152      	movs	r1, #82	; 0x52
    15f2:	5499      	strb	r1, [r3, r2]
    15f4:	4b12      	ldr	r3, [pc, #72]	; (1640 <OLED_FONT_SETUP+0x800>)
    15f6:	22fd      	movs	r2, #253	; 0xfd
    15f8:	210a      	movs	r1, #10
    15fa:	5499      	strb	r1, [r3, r2]
    15fc:	4b10      	ldr	r3, [pc, #64]	; (1640 <OLED_FONT_SETUP+0x800>)
    15fe:	22fe      	movs	r2, #254	; 0xfe
    1600:	2104      	movs	r1, #4
    1602:	5499      	strb	r1, [r3, r2]
    1604:	4b0e      	ldr	r3, [pc, #56]	; (1640 <OLED_FONT_SETUP+0x800>)
    1606:	22ff      	movs	r2, #255	; 0xff
    1608:	2100      	movs	r1, #0
    160a:	5499      	strb	r1, [r3, r2]
	FONT[32][0]=0x00;FONT[32][1]=0x3C;FONT[32][2]=0x42;FONT[32][3]=0x5A;FONT[32][4]=0x56;FONT[32][5]=0x5A;FONT[32][6]=0x1C;FONT[32][7]=0x00;//  @
    160c:	4a0c      	ldr	r2, [pc, #48]	; (1640 <OLED_FONT_SETUP+0x800>)
    160e:	2380      	movs	r3, #128	; 0x80
    1610:	005b      	lsls	r3, r3, #1
    1612:	2100      	movs	r1, #0
    1614:	54d1      	strb	r1, [r2, r3]
    1616:	4a0a      	ldr	r2, [pc, #40]	; (1640 <OLED_FONT_SETUP+0x800>)
    1618:	2302      	movs	r3, #2
    161a:	33ff      	adds	r3, #255	; 0xff
    161c:	213c      	movs	r1, #60	; 0x3c
    161e:	54d1      	strb	r1, [r2, r3]
    1620:	4a07      	ldr	r2, [pc, #28]	; (1640 <OLED_FONT_SETUP+0x800>)
    1622:	2381      	movs	r3, #129	; 0x81
    1624:	005b      	lsls	r3, r3, #1
    1626:	2142      	movs	r1, #66	; 0x42
    1628:	54d1      	strb	r1, [r2, r3]
    162a:	4a05      	ldr	r2, [pc, #20]	; (1640 <OLED_FONT_SETUP+0x800>)
    162c:	2304      	movs	r3, #4
    162e:	33ff      	adds	r3, #255	; 0xff
    1630:	215a      	movs	r1, #90	; 0x5a
    1632:	54d1      	strb	r1, [r2, r3]
    1634:	4a02      	ldr	r2, [pc, #8]	; (1640 <OLED_FONT_SETUP+0x800>)
    1636:	2382      	movs	r3, #130	; 0x82
    1638:	005b      	lsls	r3, r3, #1
    163a:	2156      	movs	r1, #86	; 0x56
    163c:	e002      	b.n	1644 <OLED_FONT_SETUP+0x804>
    163e:	46c0      	nop			; (mov r8, r8)
    1640:	2000003c 	.word	0x2000003c
    1644:	54d1      	strb	r1, [r2, r3]
    1646:	4afe      	ldr	r2, [pc, #1016]	; (1a40 <OLED_FONT_SETUP+0xc00>)
    1648:	2306      	movs	r3, #6
    164a:	33ff      	adds	r3, #255	; 0xff
    164c:	215a      	movs	r1, #90	; 0x5a
    164e:	54d1      	strb	r1, [r2, r3]
    1650:	4afb      	ldr	r2, [pc, #1004]	; (1a40 <OLED_FONT_SETUP+0xc00>)
    1652:	2383      	movs	r3, #131	; 0x83
    1654:	005b      	lsls	r3, r3, #1
    1656:	211c      	movs	r1, #28
    1658:	54d1      	strb	r1, [r2, r3]
    165a:	4af9      	ldr	r2, [pc, #996]	; (1a40 <OLED_FONT_SETUP+0xc00>)
    165c:	2308      	movs	r3, #8
    165e:	33ff      	adds	r3, #255	; 0xff
    1660:	2100      	movs	r1, #0
    1662:	54d1      	strb	r1, [r2, r3]
	FONT[33][0]=0x00;FONT[33][1]=0x7C;FONT[33][2]=0x12;FONT[33][3]=0x12;FONT[33][4]=0x12;FONT[33][5]=0x12;FONT[33][6]=0x7C;FONT[33][7]=0x00;//  A
    1664:	4af6      	ldr	r2, [pc, #984]	; (1a40 <OLED_FONT_SETUP+0xc00>)
    1666:	2384      	movs	r3, #132	; 0x84
    1668:	005b      	lsls	r3, r3, #1
    166a:	2100      	movs	r1, #0
    166c:	54d1      	strb	r1, [r2, r3]
    166e:	4af4      	ldr	r2, [pc, #976]	; (1a40 <OLED_FONT_SETUP+0xc00>)
    1670:	230a      	movs	r3, #10
    1672:	33ff      	adds	r3, #255	; 0xff
    1674:	217c      	movs	r1, #124	; 0x7c
    1676:	54d1      	strb	r1, [r2, r3]
    1678:	4af1      	ldr	r2, [pc, #964]	; (1a40 <OLED_FONT_SETUP+0xc00>)
    167a:	2385      	movs	r3, #133	; 0x85
    167c:	005b      	lsls	r3, r3, #1
    167e:	2112      	movs	r1, #18
    1680:	54d1      	strb	r1, [r2, r3]
    1682:	4aef      	ldr	r2, [pc, #956]	; (1a40 <OLED_FONT_SETUP+0xc00>)
    1684:	230c      	movs	r3, #12
    1686:	33ff      	adds	r3, #255	; 0xff
    1688:	2112      	movs	r1, #18
    168a:	54d1      	strb	r1, [r2, r3]
    168c:	4aec      	ldr	r2, [pc, #944]	; (1a40 <OLED_FONT_SETUP+0xc00>)
    168e:	2386      	movs	r3, #134	; 0x86
    1690:	005b      	lsls	r3, r3, #1
    1692:	2112      	movs	r1, #18
    1694:	54d1      	strb	r1, [r2, r3]
    1696:	4aea      	ldr	r2, [pc, #936]	; (1a40 <OLED_FONT_SETUP+0xc00>)
    1698:	230e      	movs	r3, #14
    169a:	33ff      	adds	r3, #255	; 0xff
    169c:	2112      	movs	r1, #18
    169e:	54d1      	strb	r1, [r2, r3]
    16a0:	4ae7      	ldr	r2, [pc, #924]	; (1a40 <OLED_FONT_SETUP+0xc00>)
    16a2:	2387      	movs	r3, #135	; 0x87
    16a4:	005b      	lsls	r3, r3, #1
    16a6:	217c      	movs	r1, #124	; 0x7c
    16a8:	54d1      	strb	r1, [r2, r3]
    16aa:	4ae5      	ldr	r2, [pc, #916]	; (1a40 <OLED_FONT_SETUP+0xc00>)
    16ac:	2310      	movs	r3, #16
    16ae:	33ff      	adds	r3, #255	; 0xff
    16b0:	2100      	movs	r1, #0
    16b2:	54d1      	strb	r1, [r2, r3]
	FONT[34][0]=0x00;FONT[34][1]=0x7E;FONT[34][2]=0x4A;FONT[34][3]=0x4A;FONT[34][4]=0x4A;FONT[34][5]=0x4A;FONT[34][6]=0x64;FONT[34][7]=0x00;//  B	ERROR
    16b4:	4ae2      	ldr	r2, [pc, #904]	; (1a40 <OLED_FONT_SETUP+0xc00>)
    16b6:	2388      	movs	r3, #136	; 0x88
    16b8:	005b      	lsls	r3, r3, #1
    16ba:	2100      	movs	r1, #0
    16bc:	54d1      	strb	r1, [r2, r3]
    16be:	4ae0      	ldr	r2, [pc, #896]	; (1a40 <OLED_FONT_SETUP+0xc00>)
    16c0:	2312      	movs	r3, #18
    16c2:	33ff      	adds	r3, #255	; 0xff
    16c4:	217e      	movs	r1, #126	; 0x7e
    16c6:	54d1      	strb	r1, [r2, r3]
    16c8:	4add      	ldr	r2, [pc, #884]	; (1a40 <OLED_FONT_SETUP+0xc00>)
    16ca:	2389      	movs	r3, #137	; 0x89
    16cc:	005b      	lsls	r3, r3, #1
    16ce:	214a      	movs	r1, #74	; 0x4a
    16d0:	54d1      	strb	r1, [r2, r3]
    16d2:	4adb      	ldr	r2, [pc, #876]	; (1a40 <OLED_FONT_SETUP+0xc00>)
    16d4:	2314      	movs	r3, #20
    16d6:	33ff      	adds	r3, #255	; 0xff
    16d8:	214a      	movs	r1, #74	; 0x4a
    16da:	54d1      	strb	r1, [r2, r3]
    16dc:	4ad8      	ldr	r2, [pc, #864]	; (1a40 <OLED_FONT_SETUP+0xc00>)
    16de:	238a      	movs	r3, #138	; 0x8a
    16e0:	005b      	lsls	r3, r3, #1
    16e2:	214a      	movs	r1, #74	; 0x4a
    16e4:	54d1      	strb	r1, [r2, r3]
    16e6:	4ad6      	ldr	r2, [pc, #856]	; (1a40 <OLED_FONT_SETUP+0xc00>)
    16e8:	2316      	movs	r3, #22
    16ea:	33ff      	adds	r3, #255	; 0xff
    16ec:	214a      	movs	r1, #74	; 0x4a
    16ee:	54d1      	strb	r1, [r2, r3]
    16f0:	4ad3      	ldr	r2, [pc, #844]	; (1a40 <OLED_FONT_SETUP+0xc00>)
    16f2:	238b      	movs	r3, #139	; 0x8b
    16f4:	005b      	lsls	r3, r3, #1
    16f6:	2164      	movs	r1, #100	; 0x64
    16f8:	54d1      	strb	r1, [r2, r3]
    16fa:	4ad1      	ldr	r2, [pc, #836]	; (1a40 <OLED_FONT_SETUP+0xc00>)
    16fc:	2318      	movs	r3, #24
    16fe:	33ff      	adds	r3, #255	; 0xff
    1700:	2100      	movs	r1, #0
    1702:	54d1      	strb	r1, [r2, r3]
	FONT[35][0]=0x00;FONT[35][1]=0x3C;FONT[35][2]=0x42;FONT[35][3]=0x42;FONT[35][4]=0x42;FONT[35][5]=0x42;FONT[35][6]=0x24;FONT[35][7]=0x00;//  C
    1704:	4ace      	ldr	r2, [pc, #824]	; (1a40 <OLED_FONT_SETUP+0xc00>)
    1706:	238c      	movs	r3, #140	; 0x8c
    1708:	005b      	lsls	r3, r3, #1
    170a:	2100      	movs	r1, #0
    170c:	54d1      	strb	r1, [r2, r3]
    170e:	4acc      	ldr	r2, [pc, #816]	; (1a40 <OLED_FONT_SETUP+0xc00>)
    1710:	231a      	movs	r3, #26
    1712:	33ff      	adds	r3, #255	; 0xff
    1714:	213c      	movs	r1, #60	; 0x3c
    1716:	54d1      	strb	r1, [r2, r3]
    1718:	4ac9      	ldr	r2, [pc, #804]	; (1a40 <OLED_FONT_SETUP+0xc00>)
    171a:	238d      	movs	r3, #141	; 0x8d
    171c:	005b      	lsls	r3, r3, #1
    171e:	2142      	movs	r1, #66	; 0x42
    1720:	54d1      	strb	r1, [r2, r3]
    1722:	4ac7      	ldr	r2, [pc, #796]	; (1a40 <OLED_FONT_SETUP+0xc00>)
    1724:	231c      	movs	r3, #28
    1726:	33ff      	adds	r3, #255	; 0xff
    1728:	2142      	movs	r1, #66	; 0x42
    172a:	54d1      	strb	r1, [r2, r3]
    172c:	4ac4      	ldr	r2, [pc, #784]	; (1a40 <OLED_FONT_SETUP+0xc00>)
    172e:	238e      	movs	r3, #142	; 0x8e
    1730:	005b      	lsls	r3, r3, #1
    1732:	2142      	movs	r1, #66	; 0x42
    1734:	54d1      	strb	r1, [r2, r3]
    1736:	4ac2      	ldr	r2, [pc, #776]	; (1a40 <OLED_FONT_SETUP+0xc00>)
    1738:	231e      	movs	r3, #30
    173a:	33ff      	adds	r3, #255	; 0xff
    173c:	2142      	movs	r1, #66	; 0x42
    173e:	54d1      	strb	r1, [r2, r3]
    1740:	4abf      	ldr	r2, [pc, #764]	; (1a40 <OLED_FONT_SETUP+0xc00>)
    1742:	238f      	movs	r3, #143	; 0x8f
    1744:	005b      	lsls	r3, r3, #1
    1746:	2124      	movs	r1, #36	; 0x24
    1748:	54d1      	strb	r1, [r2, r3]
    174a:	4abd      	ldr	r2, [pc, #756]	; (1a40 <OLED_FONT_SETUP+0xc00>)
    174c:	2320      	movs	r3, #32
    174e:	33ff      	adds	r3, #255	; 0xff
    1750:	2100      	movs	r1, #0
    1752:	54d1      	strb	r1, [r2, r3]
	FONT[36][0]=0x00;FONT[36][1]=0x7E;FONT[36][2]=0x42;FONT[36][3]=0x42;FONT[36][4]=0x42;FONT[36][5]=0x24;FONT[36][6]=0x18;FONT[36][7]=0x00;//  D
    1754:	4aba      	ldr	r2, [pc, #744]	; (1a40 <OLED_FONT_SETUP+0xc00>)
    1756:	2390      	movs	r3, #144	; 0x90
    1758:	005b      	lsls	r3, r3, #1
    175a:	2100      	movs	r1, #0
    175c:	54d1      	strb	r1, [r2, r3]
    175e:	4ab8      	ldr	r2, [pc, #736]	; (1a40 <OLED_FONT_SETUP+0xc00>)
    1760:	2322      	movs	r3, #34	; 0x22
    1762:	33ff      	adds	r3, #255	; 0xff
    1764:	217e      	movs	r1, #126	; 0x7e
    1766:	54d1      	strb	r1, [r2, r3]
    1768:	4ab5      	ldr	r2, [pc, #724]	; (1a40 <OLED_FONT_SETUP+0xc00>)
    176a:	2391      	movs	r3, #145	; 0x91
    176c:	005b      	lsls	r3, r3, #1
    176e:	2142      	movs	r1, #66	; 0x42
    1770:	54d1      	strb	r1, [r2, r3]
    1772:	4ab3      	ldr	r2, [pc, #716]	; (1a40 <OLED_FONT_SETUP+0xc00>)
    1774:	2324      	movs	r3, #36	; 0x24
    1776:	33ff      	adds	r3, #255	; 0xff
    1778:	2142      	movs	r1, #66	; 0x42
    177a:	54d1      	strb	r1, [r2, r3]
    177c:	4ab0      	ldr	r2, [pc, #704]	; (1a40 <OLED_FONT_SETUP+0xc00>)
    177e:	2392      	movs	r3, #146	; 0x92
    1780:	005b      	lsls	r3, r3, #1
    1782:	2142      	movs	r1, #66	; 0x42
    1784:	54d1      	strb	r1, [r2, r3]
    1786:	4aae      	ldr	r2, [pc, #696]	; (1a40 <OLED_FONT_SETUP+0xc00>)
    1788:	2326      	movs	r3, #38	; 0x26
    178a:	33ff      	adds	r3, #255	; 0xff
    178c:	2124      	movs	r1, #36	; 0x24
    178e:	54d1      	strb	r1, [r2, r3]
    1790:	4aab      	ldr	r2, [pc, #684]	; (1a40 <OLED_FONT_SETUP+0xc00>)
    1792:	2393      	movs	r3, #147	; 0x93
    1794:	005b      	lsls	r3, r3, #1
    1796:	2118      	movs	r1, #24
    1798:	54d1      	strb	r1, [r2, r3]
    179a:	4aa9      	ldr	r2, [pc, #676]	; (1a40 <OLED_FONT_SETUP+0xc00>)
    179c:	2328      	movs	r3, #40	; 0x28
    179e:	33ff      	adds	r3, #255	; 0xff
    17a0:	2100      	movs	r1, #0
    17a2:	54d1      	strb	r1, [r2, r3]
	FONT[37][0]=0x00;FONT[37][1]=0x7E;FONT[37][2]=0x4A;FONT[37][3]=0x4A;FONT[37][4]=0x4A;FONT[37][5]=0x4A;FONT[37][6]=0x42;FONT[37][7]=0x00;//  E
    17a4:	4aa6      	ldr	r2, [pc, #664]	; (1a40 <OLED_FONT_SETUP+0xc00>)
    17a6:	2394      	movs	r3, #148	; 0x94
    17a8:	005b      	lsls	r3, r3, #1
    17aa:	2100      	movs	r1, #0
    17ac:	54d1      	strb	r1, [r2, r3]
    17ae:	4aa4      	ldr	r2, [pc, #656]	; (1a40 <OLED_FONT_SETUP+0xc00>)
    17b0:	232a      	movs	r3, #42	; 0x2a
    17b2:	33ff      	adds	r3, #255	; 0xff
    17b4:	217e      	movs	r1, #126	; 0x7e
    17b6:	54d1      	strb	r1, [r2, r3]
    17b8:	4aa1      	ldr	r2, [pc, #644]	; (1a40 <OLED_FONT_SETUP+0xc00>)
    17ba:	2395      	movs	r3, #149	; 0x95
    17bc:	005b      	lsls	r3, r3, #1
    17be:	214a      	movs	r1, #74	; 0x4a
    17c0:	54d1      	strb	r1, [r2, r3]
    17c2:	4a9f      	ldr	r2, [pc, #636]	; (1a40 <OLED_FONT_SETUP+0xc00>)
    17c4:	232c      	movs	r3, #44	; 0x2c
    17c6:	33ff      	adds	r3, #255	; 0xff
    17c8:	214a      	movs	r1, #74	; 0x4a
    17ca:	54d1      	strb	r1, [r2, r3]
    17cc:	4a9c      	ldr	r2, [pc, #624]	; (1a40 <OLED_FONT_SETUP+0xc00>)
    17ce:	2396      	movs	r3, #150	; 0x96
    17d0:	005b      	lsls	r3, r3, #1
    17d2:	214a      	movs	r1, #74	; 0x4a
    17d4:	54d1      	strb	r1, [r2, r3]
    17d6:	4a9a      	ldr	r2, [pc, #616]	; (1a40 <OLED_FONT_SETUP+0xc00>)
    17d8:	232e      	movs	r3, #46	; 0x2e
    17da:	33ff      	adds	r3, #255	; 0xff
    17dc:	214a      	movs	r1, #74	; 0x4a
    17de:	54d1      	strb	r1, [r2, r3]
    17e0:	4a97      	ldr	r2, [pc, #604]	; (1a40 <OLED_FONT_SETUP+0xc00>)
    17e2:	2397      	movs	r3, #151	; 0x97
    17e4:	005b      	lsls	r3, r3, #1
    17e6:	2142      	movs	r1, #66	; 0x42
    17e8:	54d1      	strb	r1, [r2, r3]
    17ea:	4a95      	ldr	r2, [pc, #596]	; (1a40 <OLED_FONT_SETUP+0xc00>)
    17ec:	2330      	movs	r3, #48	; 0x30
    17ee:	33ff      	adds	r3, #255	; 0xff
    17f0:	2100      	movs	r1, #0
    17f2:	54d1      	strb	r1, [r2, r3]
	FONT[38][0]=0x00;FONT[38][1]=0x7E;FONT[38][2]=0x0A;FONT[38][3]=0x0A;FONT[38][4]=0x0A;FONT[38][5]=0x0A;FONT[38][6]=0x02;FONT[38][7]=0x00;//  F
    17f4:	4a92      	ldr	r2, [pc, #584]	; (1a40 <OLED_FONT_SETUP+0xc00>)
    17f6:	2398      	movs	r3, #152	; 0x98
    17f8:	005b      	lsls	r3, r3, #1
    17fa:	2100      	movs	r1, #0
    17fc:	54d1      	strb	r1, [r2, r3]
    17fe:	4a90      	ldr	r2, [pc, #576]	; (1a40 <OLED_FONT_SETUP+0xc00>)
    1800:	2332      	movs	r3, #50	; 0x32
    1802:	33ff      	adds	r3, #255	; 0xff
    1804:	217e      	movs	r1, #126	; 0x7e
    1806:	54d1      	strb	r1, [r2, r3]
    1808:	4a8d      	ldr	r2, [pc, #564]	; (1a40 <OLED_FONT_SETUP+0xc00>)
    180a:	2399      	movs	r3, #153	; 0x99
    180c:	005b      	lsls	r3, r3, #1
    180e:	210a      	movs	r1, #10
    1810:	54d1      	strb	r1, [r2, r3]
    1812:	4a8b      	ldr	r2, [pc, #556]	; (1a40 <OLED_FONT_SETUP+0xc00>)
    1814:	2334      	movs	r3, #52	; 0x34
    1816:	33ff      	adds	r3, #255	; 0xff
    1818:	210a      	movs	r1, #10
    181a:	54d1      	strb	r1, [r2, r3]
    181c:	4a88      	ldr	r2, [pc, #544]	; (1a40 <OLED_FONT_SETUP+0xc00>)
    181e:	239a      	movs	r3, #154	; 0x9a
    1820:	005b      	lsls	r3, r3, #1
    1822:	210a      	movs	r1, #10
    1824:	54d1      	strb	r1, [r2, r3]
    1826:	4a86      	ldr	r2, [pc, #536]	; (1a40 <OLED_FONT_SETUP+0xc00>)
    1828:	2336      	movs	r3, #54	; 0x36
    182a:	33ff      	adds	r3, #255	; 0xff
    182c:	210a      	movs	r1, #10
    182e:	54d1      	strb	r1, [r2, r3]
    1830:	4a83      	ldr	r2, [pc, #524]	; (1a40 <OLED_FONT_SETUP+0xc00>)
    1832:	239b      	movs	r3, #155	; 0x9b
    1834:	005b      	lsls	r3, r3, #1
    1836:	2102      	movs	r1, #2
    1838:	54d1      	strb	r1, [r2, r3]
    183a:	4a81      	ldr	r2, [pc, #516]	; (1a40 <OLED_FONT_SETUP+0xc00>)
    183c:	2338      	movs	r3, #56	; 0x38
    183e:	33ff      	adds	r3, #255	; 0xff
    1840:	2100      	movs	r1, #0
    1842:	54d1      	strb	r1, [r2, r3]
	FONT[39][0]=0x00;FONT[39][1]=0x3C;FONT[39][2]=0x42;FONT[39][3]=0x42;FONT[39][4]=0x52;FONT[39][5]=0x52;FONT[39][6]=0x34;FONT[39][7]=0x00;//  G
    1844:	4a7e      	ldr	r2, [pc, #504]	; (1a40 <OLED_FONT_SETUP+0xc00>)
    1846:	239c      	movs	r3, #156	; 0x9c
    1848:	005b      	lsls	r3, r3, #1
    184a:	2100      	movs	r1, #0
    184c:	54d1      	strb	r1, [r2, r3]
    184e:	4a7c      	ldr	r2, [pc, #496]	; (1a40 <OLED_FONT_SETUP+0xc00>)
    1850:	233a      	movs	r3, #58	; 0x3a
    1852:	33ff      	adds	r3, #255	; 0xff
    1854:	213c      	movs	r1, #60	; 0x3c
    1856:	54d1      	strb	r1, [r2, r3]
    1858:	4a79      	ldr	r2, [pc, #484]	; (1a40 <OLED_FONT_SETUP+0xc00>)
    185a:	239d      	movs	r3, #157	; 0x9d
    185c:	005b      	lsls	r3, r3, #1
    185e:	2142      	movs	r1, #66	; 0x42
    1860:	54d1      	strb	r1, [r2, r3]
    1862:	4a77      	ldr	r2, [pc, #476]	; (1a40 <OLED_FONT_SETUP+0xc00>)
    1864:	233c      	movs	r3, #60	; 0x3c
    1866:	33ff      	adds	r3, #255	; 0xff
    1868:	2142      	movs	r1, #66	; 0x42
    186a:	54d1      	strb	r1, [r2, r3]
    186c:	4a74      	ldr	r2, [pc, #464]	; (1a40 <OLED_FONT_SETUP+0xc00>)
    186e:	239e      	movs	r3, #158	; 0x9e
    1870:	005b      	lsls	r3, r3, #1
    1872:	2152      	movs	r1, #82	; 0x52
    1874:	54d1      	strb	r1, [r2, r3]
    1876:	4a72      	ldr	r2, [pc, #456]	; (1a40 <OLED_FONT_SETUP+0xc00>)
    1878:	233e      	movs	r3, #62	; 0x3e
    187a:	33ff      	adds	r3, #255	; 0xff
    187c:	2152      	movs	r1, #82	; 0x52
    187e:	54d1      	strb	r1, [r2, r3]
    1880:	4a6f      	ldr	r2, [pc, #444]	; (1a40 <OLED_FONT_SETUP+0xc00>)
    1882:	239f      	movs	r3, #159	; 0x9f
    1884:	005b      	lsls	r3, r3, #1
    1886:	2134      	movs	r1, #52	; 0x34
    1888:	54d1      	strb	r1, [r2, r3]
    188a:	4a6d      	ldr	r2, [pc, #436]	; (1a40 <OLED_FONT_SETUP+0xc00>)
    188c:	2340      	movs	r3, #64	; 0x40
    188e:	33ff      	adds	r3, #255	; 0xff
    1890:	2100      	movs	r1, #0
    1892:	54d1      	strb	r1, [r2, r3]
	FONT[40][0]=0x00;FONT[40][1]=0x7E;FONT[40][2]=0x08;FONT[40][3]=0x08;FONT[40][4]=0x08;FONT[40][5]=0x08;FONT[40][6]=0x73;FONT[40][7]=0x00;//  H ERROR
    1894:	4a6a      	ldr	r2, [pc, #424]	; (1a40 <OLED_FONT_SETUP+0xc00>)
    1896:	23a0      	movs	r3, #160	; 0xa0
    1898:	005b      	lsls	r3, r3, #1
    189a:	2100      	movs	r1, #0
    189c:	54d1      	strb	r1, [r2, r3]
    189e:	4a68      	ldr	r2, [pc, #416]	; (1a40 <OLED_FONT_SETUP+0xc00>)
    18a0:	2342      	movs	r3, #66	; 0x42
    18a2:	33ff      	adds	r3, #255	; 0xff
    18a4:	217e      	movs	r1, #126	; 0x7e
    18a6:	54d1      	strb	r1, [r2, r3]
    18a8:	4a65      	ldr	r2, [pc, #404]	; (1a40 <OLED_FONT_SETUP+0xc00>)
    18aa:	23a1      	movs	r3, #161	; 0xa1
    18ac:	005b      	lsls	r3, r3, #1
    18ae:	2108      	movs	r1, #8
    18b0:	54d1      	strb	r1, [r2, r3]
    18b2:	4a63      	ldr	r2, [pc, #396]	; (1a40 <OLED_FONT_SETUP+0xc00>)
    18b4:	2344      	movs	r3, #68	; 0x44
    18b6:	33ff      	adds	r3, #255	; 0xff
    18b8:	2108      	movs	r1, #8
    18ba:	54d1      	strb	r1, [r2, r3]
    18bc:	4a60      	ldr	r2, [pc, #384]	; (1a40 <OLED_FONT_SETUP+0xc00>)
    18be:	23a2      	movs	r3, #162	; 0xa2
    18c0:	005b      	lsls	r3, r3, #1
    18c2:	2108      	movs	r1, #8
    18c4:	54d1      	strb	r1, [r2, r3]
    18c6:	4a5e      	ldr	r2, [pc, #376]	; (1a40 <OLED_FONT_SETUP+0xc00>)
    18c8:	2346      	movs	r3, #70	; 0x46
    18ca:	33ff      	adds	r3, #255	; 0xff
    18cc:	2108      	movs	r1, #8
    18ce:	54d1      	strb	r1, [r2, r3]
    18d0:	4a5b      	ldr	r2, [pc, #364]	; (1a40 <OLED_FONT_SETUP+0xc00>)
    18d2:	23a3      	movs	r3, #163	; 0xa3
    18d4:	005b      	lsls	r3, r3, #1
    18d6:	2173      	movs	r1, #115	; 0x73
    18d8:	54d1      	strb	r1, [r2, r3]
    18da:	4a59      	ldr	r2, [pc, #356]	; (1a40 <OLED_FONT_SETUP+0xc00>)
    18dc:	2348      	movs	r3, #72	; 0x48
    18de:	33ff      	adds	r3, #255	; 0xff
    18e0:	2100      	movs	r1, #0
    18e2:	54d1      	strb	r1, [r2, r3]
	FONT[41][0]=0x00;FONT[41][1]=0x42;FONT[41][2]=0x42;FONT[41][3]=0x7E;FONT[41][4]=0x42;FONT[41][5]=0x42;FONT[41][6]=0x00;FONT[41][7]=0x00;//  I
    18e4:	4a56      	ldr	r2, [pc, #344]	; (1a40 <OLED_FONT_SETUP+0xc00>)
    18e6:	23a4      	movs	r3, #164	; 0xa4
    18e8:	005b      	lsls	r3, r3, #1
    18ea:	2100      	movs	r1, #0
    18ec:	54d1      	strb	r1, [r2, r3]
    18ee:	4a54      	ldr	r2, [pc, #336]	; (1a40 <OLED_FONT_SETUP+0xc00>)
    18f0:	234a      	movs	r3, #74	; 0x4a
    18f2:	33ff      	adds	r3, #255	; 0xff
    18f4:	2142      	movs	r1, #66	; 0x42
    18f6:	54d1      	strb	r1, [r2, r3]
    18f8:	4a51      	ldr	r2, [pc, #324]	; (1a40 <OLED_FONT_SETUP+0xc00>)
    18fa:	23a5      	movs	r3, #165	; 0xa5
    18fc:	005b      	lsls	r3, r3, #1
    18fe:	2142      	movs	r1, #66	; 0x42
    1900:	54d1      	strb	r1, [r2, r3]
    1902:	4a4f      	ldr	r2, [pc, #316]	; (1a40 <OLED_FONT_SETUP+0xc00>)
    1904:	234c      	movs	r3, #76	; 0x4c
    1906:	33ff      	adds	r3, #255	; 0xff
    1908:	217e      	movs	r1, #126	; 0x7e
    190a:	54d1      	strb	r1, [r2, r3]
    190c:	4a4c      	ldr	r2, [pc, #304]	; (1a40 <OLED_FONT_SETUP+0xc00>)
    190e:	23a6      	movs	r3, #166	; 0xa6
    1910:	005b      	lsls	r3, r3, #1
    1912:	2142      	movs	r1, #66	; 0x42
    1914:	54d1      	strb	r1, [r2, r3]
    1916:	4a4a      	ldr	r2, [pc, #296]	; (1a40 <OLED_FONT_SETUP+0xc00>)
    1918:	234e      	movs	r3, #78	; 0x4e
    191a:	33ff      	adds	r3, #255	; 0xff
    191c:	2142      	movs	r1, #66	; 0x42
    191e:	54d1      	strb	r1, [r2, r3]
    1920:	4a47      	ldr	r2, [pc, #284]	; (1a40 <OLED_FONT_SETUP+0xc00>)
    1922:	23a7      	movs	r3, #167	; 0xa7
    1924:	005b      	lsls	r3, r3, #1
    1926:	2100      	movs	r1, #0
    1928:	54d1      	strb	r1, [r2, r3]
    192a:	4a45      	ldr	r2, [pc, #276]	; (1a40 <OLED_FONT_SETUP+0xc00>)
    192c:	2350      	movs	r3, #80	; 0x50
    192e:	33ff      	adds	r3, #255	; 0xff
    1930:	2100      	movs	r1, #0
    1932:	54d1      	strb	r1, [r2, r3]
	FONT[42][0]=0x00;FONT[42][1]=0x30;FONT[42][2]=0x40;FONT[42][3]=0x40;FONT[42][4]=0x40;FONT[42][5]=0x40;FONT[42][6]=0x3E;FONT[42][7]=0x00;//  J
    1934:	4a42      	ldr	r2, [pc, #264]	; (1a40 <OLED_FONT_SETUP+0xc00>)
    1936:	23a8      	movs	r3, #168	; 0xa8
    1938:	005b      	lsls	r3, r3, #1
    193a:	2100      	movs	r1, #0
    193c:	54d1      	strb	r1, [r2, r3]
    193e:	4a40      	ldr	r2, [pc, #256]	; (1a40 <OLED_FONT_SETUP+0xc00>)
    1940:	2352      	movs	r3, #82	; 0x52
    1942:	33ff      	adds	r3, #255	; 0xff
    1944:	2130      	movs	r1, #48	; 0x30
    1946:	54d1      	strb	r1, [r2, r3]
    1948:	4a3d      	ldr	r2, [pc, #244]	; (1a40 <OLED_FONT_SETUP+0xc00>)
    194a:	23a9      	movs	r3, #169	; 0xa9
    194c:	005b      	lsls	r3, r3, #1
    194e:	2140      	movs	r1, #64	; 0x40
    1950:	54d1      	strb	r1, [r2, r3]
    1952:	4a3b      	ldr	r2, [pc, #236]	; (1a40 <OLED_FONT_SETUP+0xc00>)
    1954:	2354      	movs	r3, #84	; 0x54
    1956:	33ff      	adds	r3, #255	; 0xff
    1958:	2140      	movs	r1, #64	; 0x40
    195a:	54d1      	strb	r1, [r2, r3]
    195c:	4a38      	ldr	r2, [pc, #224]	; (1a40 <OLED_FONT_SETUP+0xc00>)
    195e:	23aa      	movs	r3, #170	; 0xaa
    1960:	005b      	lsls	r3, r3, #1
    1962:	2140      	movs	r1, #64	; 0x40
    1964:	54d1      	strb	r1, [r2, r3]
    1966:	4a36      	ldr	r2, [pc, #216]	; (1a40 <OLED_FONT_SETUP+0xc00>)
    1968:	2356      	movs	r3, #86	; 0x56
    196a:	33ff      	adds	r3, #255	; 0xff
    196c:	2140      	movs	r1, #64	; 0x40
    196e:	54d1      	strb	r1, [r2, r3]
    1970:	4a33      	ldr	r2, [pc, #204]	; (1a40 <OLED_FONT_SETUP+0xc00>)
    1972:	23ab      	movs	r3, #171	; 0xab
    1974:	005b      	lsls	r3, r3, #1
    1976:	213e      	movs	r1, #62	; 0x3e
    1978:	54d1      	strb	r1, [r2, r3]
    197a:	4a31      	ldr	r2, [pc, #196]	; (1a40 <OLED_FONT_SETUP+0xc00>)
    197c:	2358      	movs	r3, #88	; 0x58
    197e:	33ff      	adds	r3, #255	; 0xff
    1980:	2100      	movs	r1, #0
    1982:	54d1      	strb	r1, [r2, r3]
	FONT[43][0]=0x00;FONT[43][1]=0x7E;FONT[43][2]=0x08;FONT[43][3]=0x08;FONT[43][4]=0x14;FONT[43][5]=0x22;FONT[43][6]=0x40;FONT[43][7]=0x00;//  K
    1984:	4a2e      	ldr	r2, [pc, #184]	; (1a40 <OLED_FONT_SETUP+0xc00>)
    1986:	23ac      	movs	r3, #172	; 0xac
    1988:	005b      	lsls	r3, r3, #1
    198a:	2100      	movs	r1, #0
    198c:	54d1      	strb	r1, [r2, r3]
    198e:	4a2c      	ldr	r2, [pc, #176]	; (1a40 <OLED_FONT_SETUP+0xc00>)
    1990:	235a      	movs	r3, #90	; 0x5a
    1992:	33ff      	adds	r3, #255	; 0xff
    1994:	217e      	movs	r1, #126	; 0x7e
    1996:	54d1      	strb	r1, [r2, r3]
    1998:	4a29      	ldr	r2, [pc, #164]	; (1a40 <OLED_FONT_SETUP+0xc00>)
    199a:	23ad      	movs	r3, #173	; 0xad
    199c:	005b      	lsls	r3, r3, #1
    199e:	2108      	movs	r1, #8
    19a0:	54d1      	strb	r1, [r2, r3]
    19a2:	4a27      	ldr	r2, [pc, #156]	; (1a40 <OLED_FONT_SETUP+0xc00>)
    19a4:	235c      	movs	r3, #92	; 0x5c
    19a6:	33ff      	adds	r3, #255	; 0xff
    19a8:	2108      	movs	r1, #8
    19aa:	54d1      	strb	r1, [r2, r3]
    19ac:	4a24      	ldr	r2, [pc, #144]	; (1a40 <OLED_FONT_SETUP+0xc00>)
    19ae:	23ae      	movs	r3, #174	; 0xae
    19b0:	005b      	lsls	r3, r3, #1
    19b2:	2114      	movs	r1, #20
    19b4:	54d1      	strb	r1, [r2, r3]
    19b6:	4a22      	ldr	r2, [pc, #136]	; (1a40 <OLED_FONT_SETUP+0xc00>)
    19b8:	235e      	movs	r3, #94	; 0x5e
    19ba:	33ff      	adds	r3, #255	; 0xff
    19bc:	2122      	movs	r1, #34	; 0x22
    19be:	54d1      	strb	r1, [r2, r3]
    19c0:	4a1f      	ldr	r2, [pc, #124]	; (1a40 <OLED_FONT_SETUP+0xc00>)
    19c2:	23af      	movs	r3, #175	; 0xaf
    19c4:	005b      	lsls	r3, r3, #1
    19c6:	2140      	movs	r1, #64	; 0x40
    19c8:	54d1      	strb	r1, [r2, r3]
    19ca:	4a1d      	ldr	r2, [pc, #116]	; (1a40 <OLED_FONT_SETUP+0xc00>)
    19cc:	2360      	movs	r3, #96	; 0x60
    19ce:	33ff      	adds	r3, #255	; 0xff
    19d0:	2100      	movs	r1, #0
    19d2:	54d1      	strb	r1, [r2, r3]
	FONT[44][0]=0x00;FONT[44][1]=0x7E;FONT[44][2]=0x40;FONT[44][3]=0x40;FONT[44][4]=0x40;FONT[44][5]=0x40;FONT[44][6]=0x40;FONT[44][7]=0x00;//  L
    19d4:	4a1a      	ldr	r2, [pc, #104]	; (1a40 <OLED_FONT_SETUP+0xc00>)
    19d6:	23b0      	movs	r3, #176	; 0xb0
    19d8:	005b      	lsls	r3, r3, #1
    19da:	2100      	movs	r1, #0
    19dc:	54d1      	strb	r1, [r2, r3]
    19de:	4a18      	ldr	r2, [pc, #96]	; (1a40 <OLED_FONT_SETUP+0xc00>)
    19e0:	2362      	movs	r3, #98	; 0x62
    19e2:	33ff      	adds	r3, #255	; 0xff
    19e4:	217e      	movs	r1, #126	; 0x7e
    19e6:	54d1      	strb	r1, [r2, r3]
    19e8:	4a15      	ldr	r2, [pc, #84]	; (1a40 <OLED_FONT_SETUP+0xc00>)
    19ea:	23b1      	movs	r3, #177	; 0xb1
    19ec:	005b      	lsls	r3, r3, #1
    19ee:	2140      	movs	r1, #64	; 0x40
    19f0:	54d1      	strb	r1, [r2, r3]
    19f2:	4a13      	ldr	r2, [pc, #76]	; (1a40 <OLED_FONT_SETUP+0xc00>)
    19f4:	2364      	movs	r3, #100	; 0x64
    19f6:	33ff      	adds	r3, #255	; 0xff
    19f8:	2140      	movs	r1, #64	; 0x40
    19fa:	54d1      	strb	r1, [r2, r3]
    19fc:	4a10      	ldr	r2, [pc, #64]	; (1a40 <OLED_FONT_SETUP+0xc00>)
    19fe:	23b2      	movs	r3, #178	; 0xb2
    1a00:	005b      	lsls	r3, r3, #1
    1a02:	2140      	movs	r1, #64	; 0x40
    1a04:	54d1      	strb	r1, [r2, r3]
    1a06:	4a0e      	ldr	r2, [pc, #56]	; (1a40 <OLED_FONT_SETUP+0xc00>)
    1a08:	2366      	movs	r3, #102	; 0x66
    1a0a:	33ff      	adds	r3, #255	; 0xff
    1a0c:	2140      	movs	r1, #64	; 0x40
    1a0e:	54d1      	strb	r1, [r2, r3]
    1a10:	4a0b      	ldr	r2, [pc, #44]	; (1a40 <OLED_FONT_SETUP+0xc00>)
    1a12:	23b3      	movs	r3, #179	; 0xb3
    1a14:	005b      	lsls	r3, r3, #1
    1a16:	2140      	movs	r1, #64	; 0x40
    1a18:	54d1      	strb	r1, [r2, r3]
    1a1a:	4a09      	ldr	r2, [pc, #36]	; (1a40 <OLED_FONT_SETUP+0xc00>)
    1a1c:	2368      	movs	r3, #104	; 0x68
    1a1e:	33ff      	adds	r3, #255	; 0xff
    1a20:	2100      	movs	r1, #0
    1a22:	54d1      	strb	r1, [r2, r3]
	FONT[45][0]=0x00;FONT[45][1]=0x7E;FONT[45][2]=0x04;FONT[45][3]=0x08;FONT[45][4]=0x08;FONT[45][5]=0x04;FONT[45][6]=0x7E;FONT[45][7]=0x00;//  M
    1a24:	4a06      	ldr	r2, [pc, #24]	; (1a40 <OLED_FONT_SETUP+0xc00>)
    1a26:	23b4      	movs	r3, #180	; 0xb4
    1a28:	005b      	lsls	r3, r3, #1
    1a2a:	2100      	movs	r1, #0
    1a2c:	54d1      	strb	r1, [r2, r3]
    1a2e:	4a04      	ldr	r2, [pc, #16]	; (1a40 <OLED_FONT_SETUP+0xc00>)
    1a30:	236a      	movs	r3, #106	; 0x6a
    1a32:	33ff      	adds	r3, #255	; 0xff
    1a34:	217e      	movs	r1, #126	; 0x7e
    1a36:	54d1      	strb	r1, [r2, r3]
    1a38:	4a01      	ldr	r2, [pc, #4]	; (1a40 <OLED_FONT_SETUP+0xc00>)
    1a3a:	23b5      	movs	r3, #181	; 0xb5
    1a3c:	005b      	lsls	r3, r3, #1
    1a3e:	e001      	b.n	1a44 <OLED_FONT_SETUP+0xc04>
    1a40:	2000003c 	.word	0x2000003c
    1a44:	2104      	movs	r1, #4
    1a46:	54d1      	strb	r1, [r2, r3]
    1a48:	4afe      	ldr	r2, [pc, #1016]	; (1e44 <OLED_FONT_SETUP+0x1004>)
    1a4a:	236c      	movs	r3, #108	; 0x6c
    1a4c:	33ff      	adds	r3, #255	; 0xff
    1a4e:	2108      	movs	r1, #8
    1a50:	54d1      	strb	r1, [r2, r3]
    1a52:	4afc      	ldr	r2, [pc, #1008]	; (1e44 <OLED_FONT_SETUP+0x1004>)
    1a54:	23b6      	movs	r3, #182	; 0xb6
    1a56:	005b      	lsls	r3, r3, #1
    1a58:	2108      	movs	r1, #8
    1a5a:	54d1      	strb	r1, [r2, r3]
    1a5c:	4af9      	ldr	r2, [pc, #996]	; (1e44 <OLED_FONT_SETUP+0x1004>)
    1a5e:	236e      	movs	r3, #110	; 0x6e
    1a60:	33ff      	adds	r3, #255	; 0xff
    1a62:	2104      	movs	r1, #4
    1a64:	54d1      	strb	r1, [r2, r3]
    1a66:	4af7      	ldr	r2, [pc, #988]	; (1e44 <OLED_FONT_SETUP+0x1004>)
    1a68:	23b7      	movs	r3, #183	; 0xb7
    1a6a:	005b      	lsls	r3, r3, #1
    1a6c:	217e      	movs	r1, #126	; 0x7e
    1a6e:	54d1      	strb	r1, [r2, r3]
    1a70:	4af4      	ldr	r2, [pc, #976]	; (1e44 <OLED_FONT_SETUP+0x1004>)
    1a72:	2370      	movs	r3, #112	; 0x70
    1a74:	33ff      	adds	r3, #255	; 0xff
    1a76:	2100      	movs	r1, #0
    1a78:	54d1      	strb	r1, [r2, r3]
	FONT[46][0]=0x00;FONT[46][1]=0x7E;FONT[46][2]=0x04;FONT[46][3]=0x08;FONT[46][4]=0x10;FONT[46][5]=0x20;FONT[46][6]=0x7E;FONT[46][7]=0x00;//  N
    1a7a:	4af2      	ldr	r2, [pc, #968]	; (1e44 <OLED_FONT_SETUP+0x1004>)
    1a7c:	23b8      	movs	r3, #184	; 0xb8
    1a7e:	005b      	lsls	r3, r3, #1
    1a80:	2100      	movs	r1, #0
    1a82:	54d1      	strb	r1, [r2, r3]
    1a84:	4aef      	ldr	r2, [pc, #956]	; (1e44 <OLED_FONT_SETUP+0x1004>)
    1a86:	2372      	movs	r3, #114	; 0x72
    1a88:	33ff      	adds	r3, #255	; 0xff
    1a8a:	217e      	movs	r1, #126	; 0x7e
    1a8c:	54d1      	strb	r1, [r2, r3]
    1a8e:	4aed      	ldr	r2, [pc, #948]	; (1e44 <OLED_FONT_SETUP+0x1004>)
    1a90:	23b9      	movs	r3, #185	; 0xb9
    1a92:	005b      	lsls	r3, r3, #1
    1a94:	2104      	movs	r1, #4
    1a96:	54d1      	strb	r1, [r2, r3]
    1a98:	4aea      	ldr	r2, [pc, #936]	; (1e44 <OLED_FONT_SETUP+0x1004>)
    1a9a:	2374      	movs	r3, #116	; 0x74
    1a9c:	33ff      	adds	r3, #255	; 0xff
    1a9e:	2108      	movs	r1, #8
    1aa0:	54d1      	strb	r1, [r2, r3]
    1aa2:	4ae8      	ldr	r2, [pc, #928]	; (1e44 <OLED_FONT_SETUP+0x1004>)
    1aa4:	23ba      	movs	r3, #186	; 0xba
    1aa6:	005b      	lsls	r3, r3, #1
    1aa8:	2110      	movs	r1, #16
    1aaa:	54d1      	strb	r1, [r2, r3]
    1aac:	4ae5      	ldr	r2, [pc, #916]	; (1e44 <OLED_FONT_SETUP+0x1004>)
    1aae:	2376      	movs	r3, #118	; 0x76
    1ab0:	33ff      	adds	r3, #255	; 0xff
    1ab2:	2120      	movs	r1, #32
    1ab4:	54d1      	strb	r1, [r2, r3]
    1ab6:	4ae3      	ldr	r2, [pc, #908]	; (1e44 <OLED_FONT_SETUP+0x1004>)
    1ab8:	23bb      	movs	r3, #187	; 0xbb
    1aba:	005b      	lsls	r3, r3, #1
    1abc:	217e      	movs	r1, #126	; 0x7e
    1abe:	54d1      	strb	r1, [r2, r3]
    1ac0:	4ae0      	ldr	r2, [pc, #896]	; (1e44 <OLED_FONT_SETUP+0x1004>)
    1ac2:	2378      	movs	r3, #120	; 0x78
    1ac4:	33ff      	adds	r3, #255	; 0xff
    1ac6:	2100      	movs	r1, #0
    1ac8:	54d1      	strb	r1, [r2, r3]
	FONT[47][0]=0x00;FONT[47][1]=0x3C;FONT[47][2]=0x42;FONT[47][3]=0x42;FONT[47][4]=0x42;FONT[47][5]=0x42;FONT[47][6]=0x3C;FONT[47][7]=0x00;//  O
    1aca:	4ade      	ldr	r2, [pc, #888]	; (1e44 <OLED_FONT_SETUP+0x1004>)
    1acc:	23bc      	movs	r3, #188	; 0xbc
    1ace:	005b      	lsls	r3, r3, #1
    1ad0:	2100      	movs	r1, #0
    1ad2:	54d1      	strb	r1, [r2, r3]
    1ad4:	4adb      	ldr	r2, [pc, #876]	; (1e44 <OLED_FONT_SETUP+0x1004>)
    1ad6:	237a      	movs	r3, #122	; 0x7a
    1ad8:	33ff      	adds	r3, #255	; 0xff
    1ada:	213c      	movs	r1, #60	; 0x3c
    1adc:	54d1      	strb	r1, [r2, r3]
    1ade:	4ad9      	ldr	r2, [pc, #868]	; (1e44 <OLED_FONT_SETUP+0x1004>)
    1ae0:	23bd      	movs	r3, #189	; 0xbd
    1ae2:	005b      	lsls	r3, r3, #1
    1ae4:	2142      	movs	r1, #66	; 0x42
    1ae6:	54d1      	strb	r1, [r2, r3]
    1ae8:	4ad6      	ldr	r2, [pc, #856]	; (1e44 <OLED_FONT_SETUP+0x1004>)
    1aea:	237c      	movs	r3, #124	; 0x7c
    1aec:	33ff      	adds	r3, #255	; 0xff
    1aee:	2142      	movs	r1, #66	; 0x42
    1af0:	54d1      	strb	r1, [r2, r3]
    1af2:	4ad4      	ldr	r2, [pc, #848]	; (1e44 <OLED_FONT_SETUP+0x1004>)
    1af4:	23be      	movs	r3, #190	; 0xbe
    1af6:	005b      	lsls	r3, r3, #1
    1af8:	2142      	movs	r1, #66	; 0x42
    1afa:	54d1      	strb	r1, [r2, r3]
    1afc:	4ad1      	ldr	r2, [pc, #836]	; (1e44 <OLED_FONT_SETUP+0x1004>)
    1afe:	237e      	movs	r3, #126	; 0x7e
    1b00:	33ff      	adds	r3, #255	; 0xff
    1b02:	2142      	movs	r1, #66	; 0x42
    1b04:	54d1      	strb	r1, [r2, r3]
    1b06:	4acf      	ldr	r2, [pc, #828]	; (1e44 <OLED_FONT_SETUP+0x1004>)
    1b08:	23bf      	movs	r3, #191	; 0xbf
    1b0a:	005b      	lsls	r3, r3, #1
    1b0c:	213c      	movs	r1, #60	; 0x3c
    1b0e:	54d1      	strb	r1, [r2, r3]
    1b10:	4acc      	ldr	r2, [pc, #816]	; (1e44 <OLED_FONT_SETUP+0x1004>)
    1b12:	2380      	movs	r3, #128	; 0x80
    1b14:	33ff      	adds	r3, #255	; 0xff
    1b16:	2100      	movs	r1, #0
    1b18:	54d1      	strb	r1, [r2, r3]
	FONT[48][0]=0x00;FONT[48][1]=0x7E;FONT[48][2]=0x12;FONT[48][3]=0x12;FONT[48][4]=0x12;FONT[48][5]=0x12;FONT[48][6]=0x0C;FONT[48][7]=0x00;//  P
    1b1a:	4aca      	ldr	r2, [pc, #808]	; (1e44 <OLED_FONT_SETUP+0x1004>)
    1b1c:	23c0      	movs	r3, #192	; 0xc0
    1b1e:	005b      	lsls	r3, r3, #1
    1b20:	2100      	movs	r1, #0
    1b22:	54d1      	strb	r1, [r2, r3]
    1b24:	4ac7      	ldr	r2, [pc, #796]	; (1e44 <OLED_FONT_SETUP+0x1004>)
    1b26:	2382      	movs	r3, #130	; 0x82
    1b28:	33ff      	adds	r3, #255	; 0xff
    1b2a:	217e      	movs	r1, #126	; 0x7e
    1b2c:	54d1      	strb	r1, [r2, r3]
    1b2e:	4ac5      	ldr	r2, [pc, #788]	; (1e44 <OLED_FONT_SETUP+0x1004>)
    1b30:	23c1      	movs	r3, #193	; 0xc1
    1b32:	005b      	lsls	r3, r3, #1
    1b34:	2112      	movs	r1, #18
    1b36:	54d1      	strb	r1, [r2, r3]
    1b38:	4ac2      	ldr	r2, [pc, #776]	; (1e44 <OLED_FONT_SETUP+0x1004>)
    1b3a:	2384      	movs	r3, #132	; 0x84
    1b3c:	33ff      	adds	r3, #255	; 0xff
    1b3e:	2112      	movs	r1, #18
    1b40:	54d1      	strb	r1, [r2, r3]
    1b42:	4ac0      	ldr	r2, [pc, #768]	; (1e44 <OLED_FONT_SETUP+0x1004>)
    1b44:	23c2      	movs	r3, #194	; 0xc2
    1b46:	005b      	lsls	r3, r3, #1
    1b48:	2112      	movs	r1, #18
    1b4a:	54d1      	strb	r1, [r2, r3]
    1b4c:	4abd      	ldr	r2, [pc, #756]	; (1e44 <OLED_FONT_SETUP+0x1004>)
    1b4e:	2386      	movs	r3, #134	; 0x86
    1b50:	33ff      	adds	r3, #255	; 0xff
    1b52:	2112      	movs	r1, #18
    1b54:	54d1      	strb	r1, [r2, r3]
    1b56:	4abb      	ldr	r2, [pc, #748]	; (1e44 <OLED_FONT_SETUP+0x1004>)
    1b58:	23c3      	movs	r3, #195	; 0xc3
    1b5a:	005b      	lsls	r3, r3, #1
    1b5c:	210c      	movs	r1, #12
    1b5e:	54d1      	strb	r1, [r2, r3]
    1b60:	4ab8      	ldr	r2, [pc, #736]	; (1e44 <OLED_FONT_SETUP+0x1004>)
    1b62:	2388      	movs	r3, #136	; 0x88
    1b64:	33ff      	adds	r3, #255	; 0xff
    1b66:	2100      	movs	r1, #0
    1b68:	54d1      	strb	r1, [r2, r3]
	FONT[49][0]=0x00;FONT[49][1]=0x3C;FONT[49][2]=0x42;FONT[49][3]=0x52;FONT[49][4]=0x62;FONT[49][5]=0x42;FONT[49][6]=0x3C;FONT[49][7]=0x00;//  Q
    1b6a:	4ab6      	ldr	r2, [pc, #728]	; (1e44 <OLED_FONT_SETUP+0x1004>)
    1b6c:	23c4      	movs	r3, #196	; 0xc4
    1b6e:	005b      	lsls	r3, r3, #1
    1b70:	2100      	movs	r1, #0
    1b72:	54d1      	strb	r1, [r2, r3]
    1b74:	4ab3      	ldr	r2, [pc, #716]	; (1e44 <OLED_FONT_SETUP+0x1004>)
    1b76:	238a      	movs	r3, #138	; 0x8a
    1b78:	33ff      	adds	r3, #255	; 0xff
    1b7a:	213c      	movs	r1, #60	; 0x3c
    1b7c:	54d1      	strb	r1, [r2, r3]
    1b7e:	4ab1      	ldr	r2, [pc, #708]	; (1e44 <OLED_FONT_SETUP+0x1004>)
    1b80:	23c5      	movs	r3, #197	; 0xc5
    1b82:	005b      	lsls	r3, r3, #1
    1b84:	2142      	movs	r1, #66	; 0x42
    1b86:	54d1      	strb	r1, [r2, r3]
    1b88:	4aae      	ldr	r2, [pc, #696]	; (1e44 <OLED_FONT_SETUP+0x1004>)
    1b8a:	238c      	movs	r3, #140	; 0x8c
    1b8c:	33ff      	adds	r3, #255	; 0xff
    1b8e:	2152      	movs	r1, #82	; 0x52
    1b90:	54d1      	strb	r1, [r2, r3]
    1b92:	4aac      	ldr	r2, [pc, #688]	; (1e44 <OLED_FONT_SETUP+0x1004>)
    1b94:	23c6      	movs	r3, #198	; 0xc6
    1b96:	005b      	lsls	r3, r3, #1
    1b98:	2162      	movs	r1, #98	; 0x62
    1b9a:	54d1      	strb	r1, [r2, r3]
    1b9c:	4aa9      	ldr	r2, [pc, #676]	; (1e44 <OLED_FONT_SETUP+0x1004>)
    1b9e:	238e      	movs	r3, #142	; 0x8e
    1ba0:	33ff      	adds	r3, #255	; 0xff
    1ba2:	2142      	movs	r1, #66	; 0x42
    1ba4:	54d1      	strb	r1, [r2, r3]
    1ba6:	4aa7      	ldr	r2, [pc, #668]	; (1e44 <OLED_FONT_SETUP+0x1004>)
    1ba8:	23c7      	movs	r3, #199	; 0xc7
    1baa:	005b      	lsls	r3, r3, #1
    1bac:	213c      	movs	r1, #60	; 0x3c
    1bae:	54d1      	strb	r1, [r2, r3]
    1bb0:	4aa4      	ldr	r2, [pc, #656]	; (1e44 <OLED_FONT_SETUP+0x1004>)
    1bb2:	2390      	movs	r3, #144	; 0x90
    1bb4:	33ff      	adds	r3, #255	; 0xff
    1bb6:	2100      	movs	r1, #0
    1bb8:	54d1      	strb	r1, [r2, r3]
	FONT[50][0]=0x00;FONT[50][1]=0x24;FONT[50][2]=0x4A;FONT[50][3]=0x4A;FONT[50][4]=0x4A;FONT[50][5]=0x4A;FONT[50][6]=0x30;FONT[50][7]=0x00; //  R (temp copy of S)
    1bba:	4aa2      	ldr	r2, [pc, #648]	; (1e44 <OLED_FONT_SETUP+0x1004>)
    1bbc:	23c8      	movs	r3, #200	; 0xc8
    1bbe:	005b      	lsls	r3, r3, #1
    1bc0:	2100      	movs	r1, #0
    1bc2:	54d1      	strb	r1, [r2, r3]
    1bc4:	4a9f      	ldr	r2, [pc, #636]	; (1e44 <OLED_FONT_SETUP+0x1004>)
    1bc6:	2392      	movs	r3, #146	; 0x92
    1bc8:	33ff      	adds	r3, #255	; 0xff
    1bca:	2124      	movs	r1, #36	; 0x24
    1bcc:	54d1      	strb	r1, [r2, r3]
    1bce:	4a9d      	ldr	r2, [pc, #628]	; (1e44 <OLED_FONT_SETUP+0x1004>)
    1bd0:	23c9      	movs	r3, #201	; 0xc9
    1bd2:	005b      	lsls	r3, r3, #1
    1bd4:	214a      	movs	r1, #74	; 0x4a
    1bd6:	54d1      	strb	r1, [r2, r3]
    1bd8:	4a9a      	ldr	r2, [pc, #616]	; (1e44 <OLED_FONT_SETUP+0x1004>)
    1bda:	2394      	movs	r3, #148	; 0x94
    1bdc:	33ff      	adds	r3, #255	; 0xff
    1bde:	214a      	movs	r1, #74	; 0x4a
    1be0:	54d1      	strb	r1, [r2, r3]
    1be2:	4a98      	ldr	r2, [pc, #608]	; (1e44 <OLED_FONT_SETUP+0x1004>)
    1be4:	23ca      	movs	r3, #202	; 0xca
    1be6:	005b      	lsls	r3, r3, #1
    1be8:	214a      	movs	r1, #74	; 0x4a
    1bea:	54d1      	strb	r1, [r2, r3]
    1bec:	4a95      	ldr	r2, [pc, #596]	; (1e44 <OLED_FONT_SETUP+0x1004>)
    1bee:	2396      	movs	r3, #150	; 0x96
    1bf0:	33ff      	adds	r3, #255	; 0xff
    1bf2:	214a      	movs	r1, #74	; 0x4a
    1bf4:	54d1      	strb	r1, [r2, r3]
    1bf6:	4a93      	ldr	r2, [pc, #588]	; (1e44 <OLED_FONT_SETUP+0x1004>)
    1bf8:	23cb      	movs	r3, #203	; 0xcb
    1bfa:	005b      	lsls	r3, r3, #1
    1bfc:	2130      	movs	r1, #48	; 0x30
    1bfe:	54d1      	strb	r1, [r2, r3]
    1c00:	4a90      	ldr	r2, [pc, #576]	; (1e44 <OLED_FONT_SETUP+0x1004>)
    1c02:	2398      	movs	r3, #152	; 0x98
    1c04:	33ff      	adds	r3, #255	; 0xff
    1c06:	2100      	movs	r1, #0
    1c08:	54d1      	strb	r1, [r2, r3]
	FONT[51][0]=0x00;FONT[51][1]=0x24;FONT[51][2]=0x4A;FONT[51][3]=0x4A;FONT[51][4]=0x4A;FONT[51][5]=0x4A;FONT[51][6]=0x30;FONT[51][7]=0x00;//  S
    1c0a:	4a8e      	ldr	r2, [pc, #568]	; (1e44 <OLED_FONT_SETUP+0x1004>)
    1c0c:	23cc      	movs	r3, #204	; 0xcc
    1c0e:	005b      	lsls	r3, r3, #1
    1c10:	2100      	movs	r1, #0
    1c12:	54d1      	strb	r1, [r2, r3]
    1c14:	4a8b      	ldr	r2, [pc, #556]	; (1e44 <OLED_FONT_SETUP+0x1004>)
    1c16:	239a      	movs	r3, #154	; 0x9a
    1c18:	33ff      	adds	r3, #255	; 0xff
    1c1a:	2124      	movs	r1, #36	; 0x24
    1c1c:	54d1      	strb	r1, [r2, r3]
    1c1e:	4a89      	ldr	r2, [pc, #548]	; (1e44 <OLED_FONT_SETUP+0x1004>)
    1c20:	23cd      	movs	r3, #205	; 0xcd
    1c22:	005b      	lsls	r3, r3, #1
    1c24:	214a      	movs	r1, #74	; 0x4a
    1c26:	54d1      	strb	r1, [r2, r3]
    1c28:	4a86      	ldr	r2, [pc, #536]	; (1e44 <OLED_FONT_SETUP+0x1004>)
    1c2a:	239c      	movs	r3, #156	; 0x9c
    1c2c:	33ff      	adds	r3, #255	; 0xff
    1c2e:	214a      	movs	r1, #74	; 0x4a
    1c30:	54d1      	strb	r1, [r2, r3]
    1c32:	4a84      	ldr	r2, [pc, #528]	; (1e44 <OLED_FONT_SETUP+0x1004>)
    1c34:	23ce      	movs	r3, #206	; 0xce
    1c36:	005b      	lsls	r3, r3, #1
    1c38:	214a      	movs	r1, #74	; 0x4a
    1c3a:	54d1      	strb	r1, [r2, r3]
    1c3c:	4a81      	ldr	r2, [pc, #516]	; (1e44 <OLED_FONT_SETUP+0x1004>)
    1c3e:	239e      	movs	r3, #158	; 0x9e
    1c40:	33ff      	adds	r3, #255	; 0xff
    1c42:	214a      	movs	r1, #74	; 0x4a
    1c44:	54d1      	strb	r1, [r2, r3]
    1c46:	4a7f      	ldr	r2, [pc, #508]	; (1e44 <OLED_FONT_SETUP+0x1004>)
    1c48:	23cf      	movs	r3, #207	; 0xcf
    1c4a:	005b      	lsls	r3, r3, #1
    1c4c:	2130      	movs	r1, #48	; 0x30
    1c4e:	54d1      	strb	r1, [r2, r3]
    1c50:	4a7c      	ldr	r2, [pc, #496]	; (1e44 <OLED_FONT_SETUP+0x1004>)
    1c52:	23a0      	movs	r3, #160	; 0xa0
    1c54:	33ff      	adds	r3, #255	; 0xff
    1c56:	2100      	movs	r1, #0
    1c58:	54d1      	strb	r1, [r2, r3]
	FONT[52][0]=0x02;FONT[52][1]=0x02;FONT[52][2]=0x02;FONT[52][3]=0x7E;FONT[52][4]=0x02;FONT[52][5]=0x02;FONT[52][6]=0x02;FONT[52][7]=0x00;//  T
    1c5a:	4a7a      	ldr	r2, [pc, #488]	; (1e44 <OLED_FONT_SETUP+0x1004>)
    1c5c:	23d0      	movs	r3, #208	; 0xd0
    1c5e:	005b      	lsls	r3, r3, #1
    1c60:	2102      	movs	r1, #2
    1c62:	54d1      	strb	r1, [r2, r3]
    1c64:	4a77      	ldr	r2, [pc, #476]	; (1e44 <OLED_FONT_SETUP+0x1004>)
    1c66:	23a2      	movs	r3, #162	; 0xa2
    1c68:	33ff      	adds	r3, #255	; 0xff
    1c6a:	2102      	movs	r1, #2
    1c6c:	54d1      	strb	r1, [r2, r3]
    1c6e:	4a75      	ldr	r2, [pc, #468]	; (1e44 <OLED_FONT_SETUP+0x1004>)
    1c70:	23d1      	movs	r3, #209	; 0xd1
    1c72:	005b      	lsls	r3, r3, #1
    1c74:	2102      	movs	r1, #2
    1c76:	54d1      	strb	r1, [r2, r3]
    1c78:	4a72      	ldr	r2, [pc, #456]	; (1e44 <OLED_FONT_SETUP+0x1004>)
    1c7a:	23a4      	movs	r3, #164	; 0xa4
    1c7c:	33ff      	adds	r3, #255	; 0xff
    1c7e:	217e      	movs	r1, #126	; 0x7e
    1c80:	54d1      	strb	r1, [r2, r3]
    1c82:	4a70      	ldr	r2, [pc, #448]	; (1e44 <OLED_FONT_SETUP+0x1004>)
    1c84:	23d2      	movs	r3, #210	; 0xd2
    1c86:	005b      	lsls	r3, r3, #1
    1c88:	2102      	movs	r1, #2
    1c8a:	54d1      	strb	r1, [r2, r3]
    1c8c:	4a6d      	ldr	r2, [pc, #436]	; (1e44 <OLED_FONT_SETUP+0x1004>)
    1c8e:	23a6      	movs	r3, #166	; 0xa6
    1c90:	33ff      	adds	r3, #255	; 0xff
    1c92:	2102      	movs	r1, #2
    1c94:	54d1      	strb	r1, [r2, r3]
    1c96:	4a6b      	ldr	r2, [pc, #428]	; (1e44 <OLED_FONT_SETUP+0x1004>)
    1c98:	23d3      	movs	r3, #211	; 0xd3
    1c9a:	005b      	lsls	r3, r3, #1
    1c9c:	2102      	movs	r1, #2
    1c9e:	54d1      	strb	r1, [r2, r3]
    1ca0:	4a68      	ldr	r2, [pc, #416]	; (1e44 <OLED_FONT_SETUP+0x1004>)
    1ca2:	23a8      	movs	r3, #168	; 0xa8
    1ca4:	33ff      	adds	r3, #255	; 0xff
    1ca6:	2100      	movs	r1, #0
    1ca8:	54d1      	strb	r1, [r2, r3]
	FONT[53][0]=0x00;FONT[53][1]=0x3E;FONT[53][2]=0x40;FONT[53][3]=0x40;FONT[53][4]=0x40;FONT[53][5]=0x40;FONT[53][6]=0x3E;FONT[53][7]=0x00;//  U
    1caa:	4a66      	ldr	r2, [pc, #408]	; (1e44 <OLED_FONT_SETUP+0x1004>)
    1cac:	23d4      	movs	r3, #212	; 0xd4
    1cae:	005b      	lsls	r3, r3, #1
    1cb0:	2100      	movs	r1, #0
    1cb2:	54d1      	strb	r1, [r2, r3]
    1cb4:	4a63      	ldr	r2, [pc, #396]	; (1e44 <OLED_FONT_SETUP+0x1004>)
    1cb6:	23aa      	movs	r3, #170	; 0xaa
    1cb8:	33ff      	adds	r3, #255	; 0xff
    1cba:	213e      	movs	r1, #62	; 0x3e
    1cbc:	54d1      	strb	r1, [r2, r3]
    1cbe:	4a61      	ldr	r2, [pc, #388]	; (1e44 <OLED_FONT_SETUP+0x1004>)
    1cc0:	23d5      	movs	r3, #213	; 0xd5
    1cc2:	005b      	lsls	r3, r3, #1
    1cc4:	2140      	movs	r1, #64	; 0x40
    1cc6:	54d1      	strb	r1, [r2, r3]
    1cc8:	4a5e      	ldr	r2, [pc, #376]	; (1e44 <OLED_FONT_SETUP+0x1004>)
    1cca:	23ac      	movs	r3, #172	; 0xac
    1ccc:	33ff      	adds	r3, #255	; 0xff
    1cce:	2140      	movs	r1, #64	; 0x40
    1cd0:	54d1      	strb	r1, [r2, r3]
    1cd2:	4a5c      	ldr	r2, [pc, #368]	; (1e44 <OLED_FONT_SETUP+0x1004>)
    1cd4:	23d6      	movs	r3, #214	; 0xd6
    1cd6:	005b      	lsls	r3, r3, #1
    1cd8:	2140      	movs	r1, #64	; 0x40
    1cda:	54d1      	strb	r1, [r2, r3]
    1cdc:	4a59      	ldr	r2, [pc, #356]	; (1e44 <OLED_FONT_SETUP+0x1004>)
    1cde:	23ae      	movs	r3, #174	; 0xae
    1ce0:	33ff      	adds	r3, #255	; 0xff
    1ce2:	2140      	movs	r1, #64	; 0x40
    1ce4:	54d1      	strb	r1, [r2, r3]
    1ce6:	4a57      	ldr	r2, [pc, #348]	; (1e44 <OLED_FONT_SETUP+0x1004>)
    1ce8:	23d7      	movs	r3, #215	; 0xd7
    1cea:	005b      	lsls	r3, r3, #1
    1cec:	213e      	movs	r1, #62	; 0x3e
    1cee:	54d1      	strb	r1, [r2, r3]
    1cf0:	4a54      	ldr	r2, [pc, #336]	; (1e44 <OLED_FONT_SETUP+0x1004>)
    1cf2:	23b0      	movs	r3, #176	; 0xb0
    1cf4:	33ff      	adds	r3, #255	; 0xff
    1cf6:	2100      	movs	r1, #0
    1cf8:	54d1      	strb	r1, [r2, r3]
	FONT[54][0]=0x00;FONT[54][1]=0x1E;FONT[54][2]=0x20;FONT[54][3]=0x40;FONT[54][4]=0x40;FONT[54][5]=0x20;FONT[54][6]=0x1E;FONT[54][7]=0x00;//  V
    1cfa:	4a52      	ldr	r2, [pc, #328]	; (1e44 <OLED_FONT_SETUP+0x1004>)
    1cfc:	23d8      	movs	r3, #216	; 0xd8
    1cfe:	005b      	lsls	r3, r3, #1
    1d00:	2100      	movs	r1, #0
    1d02:	54d1      	strb	r1, [r2, r3]
    1d04:	4a4f      	ldr	r2, [pc, #316]	; (1e44 <OLED_FONT_SETUP+0x1004>)
    1d06:	23b2      	movs	r3, #178	; 0xb2
    1d08:	33ff      	adds	r3, #255	; 0xff
    1d0a:	211e      	movs	r1, #30
    1d0c:	54d1      	strb	r1, [r2, r3]
    1d0e:	4a4d      	ldr	r2, [pc, #308]	; (1e44 <OLED_FONT_SETUP+0x1004>)
    1d10:	23d9      	movs	r3, #217	; 0xd9
    1d12:	005b      	lsls	r3, r3, #1
    1d14:	2120      	movs	r1, #32
    1d16:	54d1      	strb	r1, [r2, r3]
    1d18:	4a4a      	ldr	r2, [pc, #296]	; (1e44 <OLED_FONT_SETUP+0x1004>)
    1d1a:	23b4      	movs	r3, #180	; 0xb4
    1d1c:	33ff      	adds	r3, #255	; 0xff
    1d1e:	2140      	movs	r1, #64	; 0x40
    1d20:	54d1      	strb	r1, [r2, r3]
    1d22:	4a48      	ldr	r2, [pc, #288]	; (1e44 <OLED_FONT_SETUP+0x1004>)
    1d24:	23da      	movs	r3, #218	; 0xda
    1d26:	005b      	lsls	r3, r3, #1
    1d28:	2140      	movs	r1, #64	; 0x40
    1d2a:	54d1      	strb	r1, [r2, r3]
    1d2c:	4a45      	ldr	r2, [pc, #276]	; (1e44 <OLED_FONT_SETUP+0x1004>)
    1d2e:	23b6      	movs	r3, #182	; 0xb6
    1d30:	33ff      	adds	r3, #255	; 0xff
    1d32:	2120      	movs	r1, #32
    1d34:	54d1      	strb	r1, [r2, r3]
    1d36:	4a43      	ldr	r2, [pc, #268]	; (1e44 <OLED_FONT_SETUP+0x1004>)
    1d38:	23db      	movs	r3, #219	; 0xdb
    1d3a:	005b      	lsls	r3, r3, #1
    1d3c:	211e      	movs	r1, #30
    1d3e:	54d1      	strb	r1, [r2, r3]
    1d40:	4a40      	ldr	r2, [pc, #256]	; (1e44 <OLED_FONT_SETUP+0x1004>)
    1d42:	23b8      	movs	r3, #184	; 0xb8
    1d44:	33ff      	adds	r3, #255	; 0xff
    1d46:	2100      	movs	r1, #0
    1d48:	54d1      	strb	r1, [r2, r3]
	FONT[55][0]=0x00;FONT[55][1]=0x3E;FONT[55][2]=0x40;FONT[55][3]=0x20;FONT[55][4]=0x20;FONT[55][5]=0x40;FONT[55][6]=0x3E;FONT[55][7]=0x00;//  W
    1d4a:	4a3e      	ldr	r2, [pc, #248]	; (1e44 <OLED_FONT_SETUP+0x1004>)
    1d4c:	23dc      	movs	r3, #220	; 0xdc
    1d4e:	005b      	lsls	r3, r3, #1
    1d50:	2100      	movs	r1, #0
    1d52:	54d1      	strb	r1, [r2, r3]
    1d54:	4a3b      	ldr	r2, [pc, #236]	; (1e44 <OLED_FONT_SETUP+0x1004>)
    1d56:	23ba      	movs	r3, #186	; 0xba
    1d58:	33ff      	adds	r3, #255	; 0xff
    1d5a:	213e      	movs	r1, #62	; 0x3e
    1d5c:	54d1      	strb	r1, [r2, r3]
    1d5e:	4a39      	ldr	r2, [pc, #228]	; (1e44 <OLED_FONT_SETUP+0x1004>)
    1d60:	23dd      	movs	r3, #221	; 0xdd
    1d62:	005b      	lsls	r3, r3, #1
    1d64:	2140      	movs	r1, #64	; 0x40
    1d66:	54d1      	strb	r1, [r2, r3]
    1d68:	4a36      	ldr	r2, [pc, #216]	; (1e44 <OLED_FONT_SETUP+0x1004>)
    1d6a:	23bc      	movs	r3, #188	; 0xbc
    1d6c:	33ff      	adds	r3, #255	; 0xff
    1d6e:	2120      	movs	r1, #32
    1d70:	54d1      	strb	r1, [r2, r3]
    1d72:	4a34      	ldr	r2, [pc, #208]	; (1e44 <OLED_FONT_SETUP+0x1004>)
    1d74:	23de      	movs	r3, #222	; 0xde
    1d76:	005b      	lsls	r3, r3, #1
    1d78:	2120      	movs	r1, #32
    1d7a:	54d1      	strb	r1, [r2, r3]
    1d7c:	4a31      	ldr	r2, [pc, #196]	; (1e44 <OLED_FONT_SETUP+0x1004>)
    1d7e:	23be      	movs	r3, #190	; 0xbe
    1d80:	33ff      	adds	r3, #255	; 0xff
    1d82:	2140      	movs	r1, #64	; 0x40
    1d84:	54d1      	strb	r1, [r2, r3]
    1d86:	4a2f      	ldr	r2, [pc, #188]	; (1e44 <OLED_FONT_SETUP+0x1004>)
    1d88:	23df      	movs	r3, #223	; 0xdf
    1d8a:	005b      	lsls	r3, r3, #1
    1d8c:	213e      	movs	r1, #62	; 0x3e
    1d8e:	54d1      	strb	r1, [r2, r3]
    1d90:	4a2c      	ldr	r2, [pc, #176]	; (1e44 <OLED_FONT_SETUP+0x1004>)
    1d92:	23c0      	movs	r3, #192	; 0xc0
    1d94:	33ff      	adds	r3, #255	; 0xff
    1d96:	2100      	movs	r1, #0
    1d98:	54d1      	strb	r1, [r2, r3]
	FONT[56][0]=0x00;FONT[56][1]=0x42;FONT[56][2]=0x24;FONT[56][3]=0x18;FONT[56][4]=0x18;FONT[56][5]=0x24;FONT[56][6]=0x42;FONT[56][7]=0x00;//  X
    1d9a:	4a2a      	ldr	r2, [pc, #168]	; (1e44 <OLED_FONT_SETUP+0x1004>)
    1d9c:	23e0      	movs	r3, #224	; 0xe0
    1d9e:	005b      	lsls	r3, r3, #1
    1da0:	2100      	movs	r1, #0
    1da2:	54d1      	strb	r1, [r2, r3]
    1da4:	4a27      	ldr	r2, [pc, #156]	; (1e44 <OLED_FONT_SETUP+0x1004>)
    1da6:	23c2      	movs	r3, #194	; 0xc2
    1da8:	33ff      	adds	r3, #255	; 0xff
    1daa:	2142      	movs	r1, #66	; 0x42
    1dac:	54d1      	strb	r1, [r2, r3]
    1dae:	4a25      	ldr	r2, [pc, #148]	; (1e44 <OLED_FONT_SETUP+0x1004>)
    1db0:	23e1      	movs	r3, #225	; 0xe1
    1db2:	005b      	lsls	r3, r3, #1
    1db4:	2124      	movs	r1, #36	; 0x24
    1db6:	54d1      	strb	r1, [r2, r3]
    1db8:	4a22      	ldr	r2, [pc, #136]	; (1e44 <OLED_FONT_SETUP+0x1004>)
    1dba:	23c4      	movs	r3, #196	; 0xc4
    1dbc:	33ff      	adds	r3, #255	; 0xff
    1dbe:	2118      	movs	r1, #24
    1dc0:	54d1      	strb	r1, [r2, r3]
    1dc2:	4a20      	ldr	r2, [pc, #128]	; (1e44 <OLED_FONT_SETUP+0x1004>)
    1dc4:	23e2      	movs	r3, #226	; 0xe2
    1dc6:	005b      	lsls	r3, r3, #1
    1dc8:	2118      	movs	r1, #24
    1dca:	54d1      	strb	r1, [r2, r3]
    1dcc:	4a1d      	ldr	r2, [pc, #116]	; (1e44 <OLED_FONT_SETUP+0x1004>)
    1dce:	23c6      	movs	r3, #198	; 0xc6
    1dd0:	33ff      	adds	r3, #255	; 0xff
    1dd2:	2124      	movs	r1, #36	; 0x24
    1dd4:	54d1      	strb	r1, [r2, r3]
    1dd6:	4a1b      	ldr	r2, [pc, #108]	; (1e44 <OLED_FONT_SETUP+0x1004>)
    1dd8:	23e3      	movs	r3, #227	; 0xe3
    1dda:	005b      	lsls	r3, r3, #1
    1ddc:	2142      	movs	r1, #66	; 0x42
    1dde:	54d1      	strb	r1, [r2, r3]
    1de0:	4a18      	ldr	r2, [pc, #96]	; (1e44 <OLED_FONT_SETUP+0x1004>)
    1de2:	23c8      	movs	r3, #200	; 0xc8
    1de4:	33ff      	adds	r3, #255	; 0xff
    1de6:	2100      	movs	r1, #0
    1de8:	54d1      	strb	r1, [r2, r3]
	FONT[57][0]=0x02;FONT[57][1]=0x04;FONT[57][2]=0x08;FONT[57][3]=0x70;FONT[57][4]=0x08;FONT[57][5]=0x04;FONT[57][6]=0x02;FONT[57][7]=0x00;//  Y
    1dea:	4a16      	ldr	r2, [pc, #88]	; (1e44 <OLED_FONT_SETUP+0x1004>)
    1dec:	23e4      	movs	r3, #228	; 0xe4
    1dee:	005b      	lsls	r3, r3, #1
    1df0:	2102      	movs	r1, #2
    1df2:	54d1      	strb	r1, [r2, r3]
    1df4:	4a13      	ldr	r2, [pc, #76]	; (1e44 <OLED_FONT_SETUP+0x1004>)
    1df6:	23ca      	movs	r3, #202	; 0xca
    1df8:	33ff      	adds	r3, #255	; 0xff
    1dfa:	2104      	movs	r1, #4
    1dfc:	54d1      	strb	r1, [r2, r3]
    1dfe:	4a11      	ldr	r2, [pc, #68]	; (1e44 <OLED_FONT_SETUP+0x1004>)
    1e00:	23e5      	movs	r3, #229	; 0xe5
    1e02:	005b      	lsls	r3, r3, #1
    1e04:	2108      	movs	r1, #8
    1e06:	54d1      	strb	r1, [r2, r3]
    1e08:	4a0e      	ldr	r2, [pc, #56]	; (1e44 <OLED_FONT_SETUP+0x1004>)
    1e0a:	23cc      	movs	r3, #204	; 0xcc
    1e0c:	33ff      	adds	r3, #255	; 0xff
    1e0e:	2170      	movs	r1, #112	; 0x70
    1e10:	54d1      	strb	r1, [r2, r3]
    1e12:	4a0c      	ldr	r2, [pc, #48]	; (1e44 <OLED_FONT_SETUP+0x1004>)
    1e14:	23e6      	movs	r3, #230	; 0xe6
    1e16:	005b      	lsls	r3, r3, #1
    1e18:	2108      	movs	r1, #8
    1e1a:	54d1      	strb	r1, [r2, r3]
    1e1c:	4a09      	ldr	r2, [pc, #36]	; (1e44 <OLED_FONT_SETUP+0x1004>)
    1e1e:	23ce      	movs	r3, #206	; 0xce
    1e20:	33ff      	adds	r3, #255	; 0xff
    1e22:	2104      	movs	r1, #4
    1e24:	54d1      	strb	r1, [r2, r3]
    1e26:	4a07      	ldr	r2, [pc, #28]	; (1e44 <OLED_FONT_SETUP+0x1004>)
    1e28:	23e7      	movs	r3, #231	; 0xe7
    1e2a:	005b      	lsls	r3, r3, #1
    1e2c:	2102      	movs	r1, #2
    1e2e:	54d1      	strb	r1, [r2, r3]
    1e30:	4a04      	ldr	r2, [pc, #16]	; (1e44 <OLED_FONT_SETUP+0x1004>)
    1e32:	23d0      	movs	r3, #208	; 0xd0
    1e34:	33ff      	adds	r3, #255	; 0xff
    1e36:	2100      	movs	r1, #0
    1e38:	54d1      	strb	r1, [r2, r3]
	FONT[58][0]=0x00;FONT[58][1]=0x42;FONT[58][2]=0x62;FONT[58][3]=0x52;FONT[58][4]=0x4A;FONT[58][5]=0x46;FONT[58][6]=0x42;FONT[58][7]=0x00;//  Z
    1e3a:	4a02      	ldr	r2, [pc, #8]	; (1e44 <OLED_FONT_SETUP+0x1004>)
    1e3c:	23e8      	movs	r3, #232	; 0xe8
    1e3e:	005b      	lsls	r3, r3, #1
    1e40:	e002      	b.n	1e48 <OLED_FONT_SETUP+0x1008>
    1e42:	46c0      	nop			; (mov r8, r8)
    1e44:	2000003c 	.word	0x2000003c
    1e48:	2100      	movs	r1, #0
    1e4a:	54d1      	strb	r1, [r2, r3]
    1e4c:	4a12      	ldr	r2, [pc, #72]	; (1e98 <OLED_FONT_SETUP+0x1058>)
    1e4e:	23d2      	movs	r3, #210	; 0xd2
    1e50:	33ff      	adds	r3, #255	; 0xff
    1e52:	2142      	movs	r1, #66	; 0x42
    1e54:	54d1      	strb	r1, [r2, r3]
    1e56:	4a10      	ldr	r2, [pc, #64]	; (1e98 <OLED_FONT_SETUP+0x1058>)
    1e58:	23e9      	movs	r3, #233	; 0xe9
    1e5a:	005b      	lsls	r3, r3, #1
    1e5c:	2162      	movs	r1, #98	; 0x62
    1e5e:	54d1      	strb	r1, [r2, r3]
    1e60:	4a0d      	ldr	r2, [pc, #52]	; (1e98 <OLED_FONT_SETUP+0x1058>)
    1e62:	23d4      	movs	r3, #212	; 0xd4
    1e64:	33ff      	adds	r3, #255	; 0xff
    1e66:	2152      	movs	r1, #82	; 0x52
    1e68:	54d1      	strb	r1, [r2, r3]
    1e6a:	4a0b      	ldr	r2, [pc, #44]	; (1e98 <OLED_FONT_SETUP+0x1058>)
    1e6c:	23ea      	movs	r3, #234	; 0xea
    1e6e:	005b      	lsls	r3, r3, #1
    1e70:	214a      	movs	r1, #74	; 0x4a
    1e72:	54d1      	strb	r1, [r2, r3]
    1e74:	4a08      	ldr	r2, [pc, #32]	; (1e98 <OLED_FONT_SETUP+0x1058>)
    1e76:	23d6      	movs	r3, #214	; 0xd6
    1e78:	33ff      	adds	r3, #255	; 0xff
    1e7a:	2146      	movs	r1, #70	; 0x46
    1e7c:	54d1      	strb	r1, [r2, r3]
    1e7e:	4a06      	ldr	r2, [pc, #24]	; (1e98 <OLED_FONT_SETUP+0x1058>)
    1e80:	23eb      	movs	r3, #235	; 0xeb
    1e82:	005b      	lsls	r3, r3, #1
    1e84:	2142      	movs	r1, #66	; 0x42
    1e86:	54d1      	strb	r1, [r2, r3]
    1e88:	4a03      	ldr	r2, [pc, #12]	; (1e98 <OLED_FONT_SETUP+0x1058>)
    1e8a:	23d8      	movs	r3, #216	; 0xd8
    1e8c:	33ff      	adds	r3, #255	; 0xff
    1e8e:	2100      	movs	r1, #0
    1e90:	54d1      	strb	r1, [r2, r3]
	//	FONT[][0]=0x00;FONT[][1]=0x;FONT[][2]=0x;FONT[][3]=0x;FONT[][4]=0x;FONT[][5]=0x;FONT[][6]=0x;FONT[][7]=0x00;
	// numbers
	//
	// '.'
	//
    1e92:	46c0      	nop			; (mov r8, r8)
    1e94:	46bd      	mov	sp, r7
    1e96:	bd80      	pop	{r7, pc}
    1e98:	2000003c 	.word	0x2000003c

00001e9c <main>:
uint16_t ADC_init (void);
volatile uint16_t adcReg;
float voltage=0,vBatFactor=0,vBat=0;
uint8_t nudda=0;
int main(void)
{
    1e9c:	b590      	push	{r4, r7, lr}
    1e9e:	b087      	sub	sp, #28
    1ea0:	af02      	add	r7, sp, #8
// put_pixel(uint8_t xx, uint8_t yy, ON/OFF);
// char a[] = "OPQRSTUVWXYZ"; pass_string(a);
// OLED_BUTTON(ON,xpos,ypos); (xpos and ypos are CHARACTER pos not pixel pos) 
//
// write an ascii char to the x y pos (works for INT type)
OLED_FONT_SETUP();
    1ea2:	4b24      	ldr	r3, [pc, #144]	; (1f34 <main+0x98>)
    1ea4:	4798      	blx	r3
system_init();
    1ea6:	4b24      	ldr	r3, [pc, #144]	; (1f38 <main+0x9c>)
    1ea8:	4798      	blx	r3
configure_i2c_master();
    1eaa:	4b24      	ldr	r3, [pc, #144]	; (1f3c <main+0xa0>)
    1eac:	4798      	blx	r3
OLED_setup();
    1eae:	4b24      	ldr	r3, [pc, #144]	; (1f40 <main+0xa4>)
    1eb0:	4798      	blx	r3
OLED_CLR();
    1eb2:	4b24      	ldr	r3, [pc, #144]	; (1f44 <main+0xa8>)
    1eb4:	4798      	blx	r3
// SDA           PA08
// SCL           PA09 
//PB08
//PB09
// PB28 - TC6-WO[1]
uint16_t adc_lsb=0;
    1eb6:	1dbb      	adds	r3, r7, #6
    1eb8:	2200      	movs	r2, #0
    1eba:	801a      	strh	r2, [r3, #0]
//adc_lsb=ADC_init();                                                                              /// calculate LSB of the ADC  as a voltage
//vBat = getVoltage(0x02) * 1;
uint8_t loop1=0;
    1ebc:	230f      	movs	r3, #15
    1ebe:	18fb      	adds	r3, r7, r3
    1ec0:	2200      	movs	r2, #0
    1ec2:	701a      	strb	r2, [r3, #0]
// uint16_t ADCval=0;
// testing OLED_hex_print;
uint32_t ll=1024;
    1ec4:	2380      	movs	r3, #128	; 0x80
    1ec6:	00db      	lsls	r3, r3, #3
    1ec8:	60bb      	str	r3, [r7, #8]
for (ll=0;ll<(1<<8);ll++)
    1eca:	2300      	movs	r3, #0
    1ecc:	60bb      	str	r3, [r7, #8]
    1ece:	e00a      	b.n	1ee6 <main+0x4a>
	OLED_bar_graph(ll,8,0,0,8);
    1ed0:	68b8      	ldr	r0, [r7, #8]
    1ed2:	2308      	movs	r3, #8
    1ed4:	9300      	str	r3, [sp, #0]
    1ed6:	2300      	movs	r3, #0
    1ed8:	2200      	movs	r2, #0
    1eda:	2108      	movs	r1, #8
    1edc:	4c1a      	ldr	r4, [pc, #104]	; (1f48 <main+0xac>)
    1ede:	47a0      	blx	r4
//vBat = getVoltage(0x02) * 1;
uint8_t loop1=0;
// uint16_t ADCval=0;
// testing OLED_hex_print;
uint32_t ll=1024;
for (ll=0;ll<(1<<8);ll++)
    1ee0:	68bb      	ldr	r3, [r7, #8]
    1ee2:	3301      	adds	r3, #1
    1ee4:	60bb      	str	r3, [r7, #8]
    1ee6:	68bb      	ldr	r3, [r7, #8]
    1ee8:	2bff      	cmp	r3, #255	; 0xff
    1eea:	d9f1      	bls.n	1ed0 <main+0x34>
	OLED_bar_graph(ll,8,0,0,8);

OLED_BUTTON(1,5,5);
    1eec:	2205      	movs	r2, #5
    1eee:	2105      	movs	r1, #5
    1ef0:	2001      	movs	r0, #1
    1ef2:	4b16      	ldr	r3, [pc, #88]	; (1f4c <main+0xb0>)
    1ef4:	4798      	blx	r3
	while(1)
	{
		OLED_BUTTON(loop1,5,5);
    1ef6:	230f      	movs	r3, #15
    1ef8:	18fb      	adds	r3, r7, r3
    1efa:	781b      	ldrb	r3, [r3, #0]
    1efc:	1e5a      	subs	r2, r3, #1
    1efe:	4193      	sbcs	r3, r2
    1f00:	b2db      	uxtb	r3, r3
    1f02:	2205      	movs	r2, #5
    1f04:	2105      	movs	r1, #5
    1f06:	0018      	movs	r0, r3
    1f08:	4b10      	ldr	r3, [pc, #64]	; (1f4c <main+0xb0>)
    1f0a:	4798      	blx	r3
		//for (loop1=0;loop1<4;loop1++)// Read POT0 and display on OLED
		//{ADCval=getVoltage(loop1);
		//OLED_INT(8888,loop1,loop1);
		//OLED_INT(ADCval,loop1,loop1);
		// OLED_INT(loop1,3,3);
		OLED_TIC_UPDATE();
    1f0c:	4b10      	ldr	r3, [pc, #64]	; (1f50 <main+0xb4>)
    1f0e:	4798      	blx	r3
		loop1++;
    1f10:	230f      	movs	r3, #15
    1f12:	18fb      	adds	r3, r7, r3
    1f14:	781a      	ldrb	r2, [r3, #0]
    1f16:	230f      	movs	r3, #15
    1f18:	18fb      	adds	r3, r7, r3
    1f1a:	3201      	adds	r2, #1
    1f1c:	701a      	strb	r2, [r3, #0]
		if (loop1==2) loop1=0;
    1f1e:	230f      	movs	r3, #15
    1f20:	18fb      	adds	r3, r7, r3
    1f22:	781b      	ldrb	r3, [r3, #0]
    1f24:	2b02      	cmp	r3, #2
    1f26:	d1e6      	bne.n	1ef6 <main+0x5a>
    1f28:	230f      	movs	r3, #15
    1f2a:	18fb      	adds	r3, r7, r3
    1f2c:	2200      	movs	r2, #0
    1f2e:	701a      	strb	r2, [r3, #0]
		//}
	}	
    1f30:	e7e1      	b.n	1ef6 <main+0x5a>
    1f32:	46c0      	nop			; (mov r8, r8)
    1f34:	00000e41 	.word	0x00000e41
    1f38:	00002299 	.word	0x00002299
    1f3c:	000009b9 	.word	0x000009b9
    1f40:	00000d41 	.word	0x00000d41
    1f44:	00000de1 	.word	0x00000de1
    1f48:	0000023d 	.word	0x0000023d
    1f4c:	000006a5 	.word	0x000006a5
    1f50:	000005e5 	.word	0x000005e5

00001f54 <system_pinmux_get_config_defaults>:
 *
 * \param[out] config  Configuration structure to initialize to default values
 */
static inline void system_pinmux_get_config_defaults(
		struct system_pinmux_config *const config)
{
    1f54:	b580      	push	{r7, lr}
    1f56:	b082      	sub	sp, #8
    1f58:	af00      	add	r7, sp, #0
    1f5a:	6078      	str	r0, [r7, #4]
	/* Sanity check arguments */
	Assert(config);

	/* Default configuration values */
	config->mux_position = SYSTEM_PINMUX_GPIO;
    1f5c:	687b      	ldr	r3, [r7, #4]
    1f5e:	2280      	movs	r2, #128	; 0x80
    1f60:	701a      	strb	r2, [r3, #0]
	config->direction    = SYSTEM_PINMUX_PIN_DIR_INPUT;
    1f62:	687b      	ldr	r3, [r7, #4]
    1f64:	2200      	movs	r2, #0
    1f66:	705a      	strb	r2, [r3, #1]
	config->input_pull   = SYSTEM_PINMUX_PIN_PULL_UP;
    1f68:	687b      	ldr	r3, [r7, #4]
    1f6a:	2201      	movs	r2, #1
    1f6c:	709a      	strb	r2, [r3, #2]
	config->powersave    = false;
    1f6e:	687b      	ldr	r3, [r7, #4]
    1f70:	2200      	movs	r2, #0
    1f72:	70da      	strb	r2, [r3, #3]
}
    1f74:	46c0      	nop			; (mov r8, r8)
    1f76:	46bd      	mov	sp, r7
    1f78:	b002      	add	sp, #8
    1f7a:	bd80      	pop	{r7, pc}

00001f7c <port_pin_set_config>:
 *  \param[in] config    Configuration settings for the pin
 */
void port_pin_set_config(
		const uint8_t gpio_pin,
		const struct port_config *const config)
{
    1f7c:	b580      	push	{r7, lr}
    1f7e:	b084      	sub	sp, #16
    1f80:	af00      	add	r7, sp, #0
    1f82:	0002      	movs	r2, r0
    1f84:	6039      	str	r1, [r7, #0]
    1f86:	1dfb      	adds	r3, r7, #7
    1f88:	701a      	strb	r2, [r3, #0]
	/* Sanity check arguments */
	Assert(config);

	struct system_pinmux_config pinmux_config;
	system_pinmux_get_config_defaults(&pinmux_config);
    1f8a:	230c      	movs	r3, #12
    1f8c:	18fb      	adds	r3, r7, r3
    1f8e:	0018      	movs	r0, r3
    1f90:	4b10      	ldr	r3, [pc, #64]	; (1fd4 <port_pin_set_config+0x58>)
    1f92:	4798      	blx	r3

	pinmux_config.mux_position = SYSTEM_PINMUX_GPIO;
    1f94:	230c      	movs	r3, #12
    1f96:	18fb      	adds	r3, r7, r3
    1f98:	2280      	movs	r2, #128	; 0x80
    1f9a:	701a      	strb	r2, [r3, #0]
	pinmux_config.direction    = (enum system_pinmux_pin_dir)config->direction;
    1f9c:	683b      	ldr	r3, [r7, #0]
    1f9e:	781a      	ldrb	r2, [r3, #0]
    1fa0:	230c      	movs	r3, #12
    1fa2:	18fb      	adds	r3, r7, r3
    1fa4:	705a      	strb	r2, [r3, #1]
	pinmux_config.input_pull   = (enum system_pinmux_pin_pull)config->input_pull;
    1fa6:	683b      	ldr	r3, [r7, #0]
    1fa8:	785a      	ldrb	r2, [r3, #1]
    1faa:	230c      	movs	r3, #12
    1fac:	18fb      	adds	r3, r7, r3
    1fae:	709a      	strb	r2, [r3, #2]
	pinmux_config.powersave    = config->powersave;
    1fb0:	683b      	ldr	r3, [r7, #0]
    1fb2:	789a      	ldrb	r2, [r3, #2]
    1fb4:	230c      	movs	r3, #12
    1fb6:	18fb      	adds	r3, r7, r3
    1fb8:	70da      	strb	r2, [r3, #3]

	system_pinmux_pin_set_config(gpio_pin, &pinmux_config);
    1fba:	230c      	movs	r3, #12
    1fbc:	18fa      	adds	r2, r7, r3
    1fbe:	1dfb      	adds	r3, r7, #7
    1fc0:	781b      	ldrb	r3, [r3, #0]
    1fc2:	0011      	movs	r1, r2
    1fc4:	0018      	movs	r0, r3
    1fc6:	4b04      	ldr	r3, [pc, #16]	; (1fd8 <port_pin_set_config+0x5c>)
    1fc8:	4798      	blx	r3
}
    1fca:	46c0      	nop			; (mov r8, r8)
    1fcc:	46bd      	mov	sp, r7
    1fce:	b004      	add	sp, #16
    1fd0:	bd80      	pop	{r7, pc}
    1fd2:	46c0      	nop			; (mov r8, r8)
    1fd4:	00001f55 	.word	0x00001f55
    1fd8:	0000261d 	.word	0x0000261d

00001fdc <system_gclk_chan_get_config_defaults>:
 *
 * \param[out] config  Configuration structure to initialize to default values
 */
static inline void system_gclk_chan_get_config_defaults(
		struct system_gclk_chan_config *const config)
{
    1fdc:	b580      	push	{r7, lr}
    1fde:	b082      	sub	sp, #8
    1fe0:	af00      	add	r7, sp, #0
    1fe2:	6078      	str	r0, [r7, #4]
	/* Sanity check arguments */
	Assert(config);

	/* Default configuration values */
	config->source_generator = GCLK_GENERATOR_0;
    1fe4:	687b      	ldr	r3, [r7, #4]
    1fe6:	2200      	movs	r2, #0
    1fe8:	701a      	strb	r2, [r3, #0]
}
    1fea:	46c0      	nop			; (mov r8, r8)
    1fec:	46bd      	mov	sp, r7
    1fee:	b002      	add	sp, #8
    1ff0:	bd80      	pop	{r7, pc}
    1ff2:	46c0      	nop			; (mov r8, r8)

00001ff4 <sercom_set_gclk_generator>:
 *                                         forced.
 */
enum status_code sercom_set_gclk_generator(
		const enum gclk_generator generator_source,
		const bool force_change)
{
    1ff4:	b580      	push	{r7, lr}
    1ff6:	b084      	sub	sp, #16
    1ff8:	af00      	add	r7, sp, #0
    1ffa:	0002      	movs	r2, r0
    1ffc:	1dfb      	adds	r3, r7, #7
    1ffe:	701a      	strb	r2, [r3, #0]
    2000:	1dbb      	adds	r3, r7, #6
    2002:	1c0a      	adds	r2, r1, #0
    2004:	701a      	strb	r2, [r3, #0]
	/* Check if valid option */
	if (!_sercom_config.generator_is_set || force_change) {
    2006:	4b1a      	ldr	r3, [pc, #104]	; (2070 <sercom_set_gclk_generator+0x7c>)
    2008:	781b      	ldrb	r3, [r3, #0]
    200a:	2201      	movs	r2, #1
    200c:	4053      	eors	r3, r2
    200e:	b2db      	uxtb	r3, r3
    2010:	2b00      	cmp	r3, #0
    2012:	d103      	bne.n	201c <sercom_set_gclk_generator+0x28>
    2014:	1dbb      	adds	r3, r7, #6
    2016:	781b      	ldrb	r3, [r3, #0]
    2018:	2b00      	cmp	r3, #0
    201a:	d01b      	beq.n	2054 <sercom_set_gclk_generator+0x60>
		/* Create and fill a GCLK configuration structure for the new config */
		struct system_gclk_chan_config gclk_chan_conf;
		system_gclk_chan_get_config_defaults(&gclk_chan_conf);
    201c:	230c      	movs	r3, #12
    201e:	18fb      	adds	r3, r7, r3
    2020:	0018      	movs	r0, r3
    2022:	4b14      	ldr	r3, [pc, #80]	; (2074 <sercom_set_gclk_generator+0x80>)
    2024:	4798      	blx	r3
		gclk_chan_conf.source_generator = generator_source;
    2026:	230c      	movs	r3, #12
    2028:	18fb      	adds	r3, r7, r3
    202a:	1dfa      	adds	r2, r7, #7
    202c:	7812      	ldrb	r2, [r2, #0]
    202e:	701a      	strb	r2, [r3, #0]
		system_gclk_chan_set_config(SERCOM_GCLK_ID, &gclk_chan_conf);
    2030:	230c      	movs	r3, #12
    2032:	18fb      	adds	r3, r7, r3
    2034:	0019      	movs	r1, r3
    2036:	2013      	movs	r0, #19
    2038:	4b0f      	ldr	r3, [pc, #60]	; (2078 <sercom_set_gclk_generator+0x84>)
    203a:	4798      	blx	r3
		system_gclk_chan_enable(SERCOM_GCLK_ID);
    203c:	2013      	movs	r0, #19
    203e:	4b0f      	ldr	r3, [pc, #60]	; (207c <sercom_set_gclk_generator+0x88>)
    2040:	4798      	blx	r3

		/* Save config */
		_sercom_config.generator_source = generator_source;
    2042:	4b0b      	ldr	r3, [pc, #44]	; (2070 <sercom_set_gclk_generator+0x7c>)
    2044:	1dfa      	adds	r2, r7, #7
    2046:	7812      	ldrb	r2, [r2, #0]
    2048:	705a      	strb	r2, [r3, #1]
		_sercom_config.generator_is_set = true;
    204a:	4b09      	ldr	r3, [pc, #36]	; (2070 <sercom_set_gclk_generator+0x7c>)
    204c:	2201      	movs	r2, #1
    204e:	701a      	strb	r2, [r3, #0]

		return STATUS_OK;
    2050:	2300      	movs	r3, #0
    2052:	e008      	b.n	2066 <sercom_set_gclk_generator+0x72>
	} else if (generator_source == _sercom_config.generator_source) {
    2054:	4b06      	ldr	r3, [pc, #24]	; (2070 <sercom_set_gclk_generator+0x7c>)
    2056:	785b      	ldrb	r3, [r3, #1]
    2058:	1dfa      	adds	r2, r7, #7
    205a:	7812      	ldrb	r2, [r2, #0]
    205c:	429a      	cmp	r2, r3
    205e:	d101      	bne.n	2064 <sercom_set_gclk_generator+0x70>
		/* Return status OK if same config */
		return STATUS_OK;
    2060:	2300      	movs	r3, #0
    2062:	e000      	b.n	2066 <sercom_set_gclk_generator+0x72>
	}

	/* Return invalid config to already initialized GCLK */
	return STATUS_ERR_ALREADY_INITIALIZED;
    2064:	231d      	movs	r3, #29
}
    2066:	0018      	movs	r0, r3
    2068:	46bd      	mov	sp, r7
    206a:	b004      	add	sp, #16
    206c:	bd80      	pop	{r7, pc}
    206e:	46c0      	nop			; (mov r8, r8)
    2070:	200006c8 	.word	0x200006c8
    2074:	00001fdd 	.word	0x00001fdd
    2078:	0000365d 	.word	0x0000365d
    207c:	000036a1 	.word	0x000036a1

00002080 <_sercom_get_default_pad>:
 *
 */
uint32_t _sercom_get_default_pad(
		Sercom *const sercom_module,
		const uint8_t pad)
{
    2080:	b580      	push	{r7, lr}
    2082:	b082      	sub	sp, #8
    2084:	af00      	add	r7, sp, #0
    2086:	6078      	str	r0, [r7, #4]
    2088:	000a      	movs	r2, r1
    208a:	1cfb      	adds	r3, r7, #3
    208c:	701a      	strb	r2, [r3, #0]
	switch ((uintptr_t)sercom_module) {
    208e:	687b      	ldr	r3, [r7, #4]
    2090:	4a4d      	ldr	r2, [pc, #308]	; (21c8 <_sercom_get_default_pad+0x148>)
    2092:	4293      	cmp	r3, r2
    2094:	d03f      	beq.n	2116 <_sercom_get_default_pad+0x96>
    2096:	4a4c      	ldr	r2, [pc, #304]	; (21c8 <_sercom_get_default_pad+0x148>)
    2098:	4293      	cmp	r3, r2
    209a:	d806      	bhi.n	20aa <_sercom_get_default_pad+0x2a>
    209c:	4a4b      	ldr	r2, [pc, #300]	; (21cc <_sercom_get_default_pad+0x14c>)
    209e:	4293      	cmp	r3, r2
    20a0:	d00f      	beq.n	20c2 <_sercom_get_default_pad+0x42>
    20a2:	4a4b      	ldr	r2, [pc, #300]	; (21d0 <_sercom_get_default_pad+0x150>)
    20a4:	4293      	cmp	r3, r2
    20a6:	d021      	beq.n	20ec <_sercom_get_default_pad+0x6c>
    20a8:	e089      	b.n	21be <_sercom_get_default_pad+0x13e>
    20aa:	4a4a      	ldr	r2, [pc, #296]	; (21d4 <_sercom_get_default_pad+0x154>)
    20ac:	4293      	cmp	r3, r2
    20ae:	d100      	bne.n	20b2 <_sercom_get_default_pad+0x32>
    20b0:	e05b      	b.n	216a <_sercom_get_default_pad+0xea>
    20b2:	4a49      	ldr	r2, [pc, #292]	; (21d8 <_sercom_get_default_pad+0x158>)
    20b4:	4293      	cmp	r3, r2
    20b6:	d100      	bne.n	20ba <_sercom_get_default_pad+0x3a>
    20b8:	e06c      	b.n	2194 <_sercom_get_default_pad+0x114>
    20ba:	4a48      	ldr	r2, [pc, #288]	; (21dc <_sercom_get_default_pad+0x15c>)
    20bc:	4293      	cmp	r3, r2
    20be:	d03f      	beq.n	2140 <_sercom_get_default_pad+0xc0>
    20c0:	e07d      	b.n	21be <_sercom_get_default_pad+0x13e>
		/* Auto-generate a lookup table for the default SERCOM pad defaults */
		MREPEAT(SERCOM_INST_NUM, _SERCOM_PAD_DEFAULTS_CASE, pad)
    20c2:	1cfb      	adds	r3, r7, #3
    20c4:	781b      	ldrb	r3, [r3, #0]
    20c6:	2b01      	cmp	r3, #1
    20c8:	d00a      	beq.n	20e0 <_sercom_get_default_pad+0x60>
    20ca:	dc02      	bgt.n	20d2 <_sercom_get_default_pad+0x52>
    20cc:	2b00      	cmp	r3, #0
    20ce:	d005      	beq.n	20dc <_sercom_get_default_pad+0x5c>
    20d0:	e075      	b.n	21be <_sercom_get_default_pad+0x13e>
    20d2:	2b02      	cmp	r3, #2
    20d4:	d006      	beq.n	20e4 <_sercom_get_default_pad+0x64>
    20d6:	2b03      	cmp	r3, #3
    20d8:	d006      	beq.n	20e8 <_sercom_get_default_pad+0x68>
    20da:	e070      	b.n	21be <_sercom_get_default_pad+0x13e>
    20dc:	4b40      	ldr	r3, [pc, #256]	; (21e0 <_sercom_get_default_pad+0x160>)
    20de:	e06f      	b.n	21c0 <_sercom_get_default_pad+0x140>
    20e0:	4b40      	ldr	r3, [pc, #256]	; (21e4 <_sercom_get_default_pad+0x164>)
    20e2:	e06d      	b.n	21c0 <_sercom_get_default_pad+0x140>
    20e4:	4b40      	ldr	r3, [pc, #256]	; (21e8 <_sercom_get_default_pad+0x168>)
    20e6:	e06b      	b.n	21c0 <_sercom_get_default_pad+0x140>
    20e8:	4b40      	ldr	r3, [pc, #256]	; (21ec <_sercom_get_default_pad+0x16c>)
    20ea:	e069      	b.n	21c0 <_sercom_get_default_pad+0x140>
    20ec:	1cfb      	adds	r3, r7, #3
    20ee:	781b      	ldrb	r3, [r3, #0]
    20f0:	2b01      	cmp	r3, #1
    20f2:	d00a      	beq.n	210a <_sercom_get_default_pad+0x8a>
    20f4:	dc02      	bgt.n	20fc <_sercom_get_default_pad+0x7c>
    20f6:	2b00      	cmp	r3, #0
    20f8:	d005      	beq.n	2106 <_sercom_get_default_pad+0x86>
    20fa:	e060      	b.n	21be <_sercom_get_default_pad+0x13e>
    20fc:	2b02      	cmp	r3, #2
    20fe:	d006      	beq.n	210e <_sercom_get_default_pad+0x8e>
    2100:	2b03      	cmp	r3, #3
    2102:	d006      	beq.n	2112 <_sercom_get_default_pad+0x92>
    2104:	e05b      	b.n	21be <_sercom_get_default_pad+0x13e>
    2106:	2303      	movs	r3, #3
    2108:	e05a      	b.n	21c0 <_sercom_get_default_pad+0x140>
    210a:	4b39      	ldr	r3, [pc, #228]	; (21f0 <_sercom_get_default_pad+0x170>)
    210c:	e058      	b.n	21c0 <_sercom_get_default_pad+0x140>
    210e:	4b39      	ldr	r3, [pc, #228]	; (21f4 <_sercom_get_default_pad+0x174>)
    2110:	e056      	b.n	21c0 <_sercom_get_default_pad+0x140>
    2112:	4b39      	ldr	r3, [pc, #228]	; (21f8 <_sercom_get_default_pad+0x178>)
    2114:	e054      	b.n	21c0 <_sercom_get_default_pad+0x140>
    2116:	1cfb      	adds	r3, r7, #3
    2118:	781b      	ldrb	r3, [r3, #0]
    211a:	2b01      	cmp	r3, #1
    211c:	d00a      	beq.n	2134 <_sercom_get_default_pad+0xb4>
    211e:	dc02      	bgt.n	2126 <_sercom_get_default_pad+0xa6>
    2120:	2b00      	cmp	r3, #0
    2122:	d005      	beq.n	2130 <_sercom_get_default_pad+0xb0>
    2124:	e04b      	b.n	21be <_sercom_get_default_pad+0x13e>
    2126:	2b02      	cmp	r3, #2
    2128:	d006      	beq.n	2138 <_sercom_get_default_pad+0xb8>
    212a:	2b03      	cmp	r3, #3
    212c:	d006      	beq.n	213c <_sercom_get_default_pad+0xbc>
    212e:	e046      	b.n	21be <_sercom_get_default_pad+0x13e>
    2130:	4b32      	ldr	r3, [pc, #200]	; (21fc <_sercom_get_default_pad+0x17c>)
    2132:	e045      	b.n	21c0 <_sercom_get_default_pad+0x140>
    2134:	4b32      	ldr	r3, [pc, #200]	; (2200 <_sercom_get_default_pad+0x180>)
    2136:	e043      	b.n	21c0 <_sercom_get_default_pad+0x140>
    2138:	4b32      	ldr	r3, [pc, #200]	; (2204 <_sercom_get_default_pad+0x184>)
    213a:	e041      	b.n	21c0 <_sercom_get_default_pad+0x140>
    213c:	4b32      	ldr	r3, [pc, #200]	; (2208 <_sercom_get_default_pad+0x188>)
    213e:	e03f      	b.n	21c0 <_sercom_get_default_pad+0x140>
    2140:	1cfb      	adds	r3, r7, #3
    2142:	781b      	ldrb	r3, [r3, #0]
    2144:	2b01      	cmp	r3, #1
    2146:	d00a      	beq.n	215e <_sercom_get_default_pad+0xde>
    2148:	dc02      	bgt.n	2150 <_sercom_get_default_pad+0xd0>
    214a:	2b00      	cmp	r3, #0
    214c:	d005      	beq.n	215a <_sercom_get_default_pad+0xda>
    214e:	e036      	b.n	21be <_sercom_get_default_pad+0x13e>
    2150:	2b02      	cmp	r3, #2
    2152:	d006      	beq.n	2162 <_sercom_get_default_pad+0xe2>
    2154:	2b03      	cmp	r3, #3
    2156:	d006      	beq.n	2166 <_sercom_get_default_pad+0xe6>
    2158:	e031      	b.n	21be <_sercom_get_default_pad+0x13e>
    215a:	4b2c      	ldr	r3, [pc, #176]	; (220c <_sercom_get_default_pad+0x18c>)
    215c:	e030      	b.n	21c0 <_sercom_get_default_pad+0x140>
    215e:	4b2c      	ldr	r3, [pc, #176]	; (2210 <_sercom_get_default_pad+0x190>)
    2160:	e02e      	b.n	21c0 <_sercom_get_default_pad+0x140>
    2162:	4b2c      	ldr	r3, [pc, #176]	; (2214 <_sercom_get_default_pad+0x194>)
    2164:	e02c      	b.n	21c0 <_sercom_get_default_pad+0x140>
    2166:	4b2c      	ldr	r3, [pc, #176]	; (2218 <_sercom_get_default_pad+0x198>)
    2168:	e02a      	b.n	21c0 <_sercom_get_default_pad+0x140>
    216a:	1cfb      	adds	r3, r7, #3
    216c:	781b      	ldrb	r3, [r3, #0]
    216e:	2b01      	cmp	r3, #1
    2170:	d00a      	beq.n	2188 <_sercom_get_default_pad+0x108>
    2172:	dc02      	bgt.n	217a <_sercom_get_default_pad+0xfa>
    2174:	2b00      	cmp	r3, #0
    2176:	d005      	beq.n	2184 <_sercom_get_default_pad+0x104>
    2178:	e021      	b.n	21be <_sercom_get_default_pad+0x13e>
    217a:	2b02      	cmp	r3, #2
    217c:	d006      	beq.n	218c <_sercom_get_default_pad+0x10c>
    217e:	2b03      	cmp	r3, #3
    2180:	d006      	beq.n	2190 <_sercom_get_default_pad+0x110>
    2182:	e01c      	b.n	21be <_sercom_get_default_pad+0x13e>
    2184:	4b25      	ldr	r3, [pc, #148]	; (221c <_sercom_get_default_pad+0x19c>)
    2186:	e01b      	b.n	21c0 <_sercom_get_default_pad+0x140>
    2188:	4b25      	ldr	r3, [pc, #148]	; (2220 <_sercom_get_default_pad+0x1a0>)
    218a:	e019      	b.n	21c0 <_sercom_get_default_pad+0x140>
    218c:	4b25      	ldr	r3, [pc, #148]	; (2224 <_sercom_get_default_pad+0x1a4>)
    218e:	e017      	b.n	21c0 <_sercom_get_default_pad+0x140>
    2190:	4b25      	ldr	r3, [pc, #148]	; (2228 <_sercom_get_default_pad+0x1a8>)
    2192:	e015      	b.n	21c0 <_sercom_get_default_pad+0x140>
    2194:	1cfb      	adds	r3, r7, #3
    2196:	781b      	ldrb	r3, [r3, #0]
    2198:	2b01      	cmp	r3, #1
    219a:	d00a      	beq.n	21b2 <_sercom_get_default_pad+0x132>
    219c:	dc02      	bgt.n	21a4 <_sercom_get_default_pad+0x124>
    219e:	2b00      	cmp	r3, #0
    21a0:	d005      	beq.n	21ae <_sercom_get_default_pad+0x12e>
    21a2:	e00c      	b.n	21be <_sercom_get_default_pad+0x13e>
    21a4:	2b02      	cmp	r3, #2
    21a6:	d006      	beq.n	21b6 <_sercom_get_default_pad+0x136>
    21a8:	2b03      	cmp	r3, #3
    21aa:	d006      	beq.n	21ba <_sercom_get_default_pad+0x13a>
    21ac:	e007      	b.n	21be <_sercom_get_default_pad+0x13e>
    21ae:	4b1f      	ldr	r3, [pc, #124]	; (222c <_sercom_get_default_pad+0x1ac>)
    21b0:	e006      	b.n	21c0 <_sercom_get_default_pad+0x140>
    21b2:	4b1f      	ldr	r3, [pc, #124]	; (2230 <_sercom_get_default_pad+0x1b0>)
    21b4:	e004      	b.n	21c0 <_sercom_get_default_pad+0x140>
    21b6:	4b1f      	ldr	r3, [pc, #124]	; (2234 <_sercom_get_default_pad+0x1b4>)
    21b8:	e002      	b.n	21c0 <_sercom_get_default_pad+0x140>
    21ba:	4b1f      	ldr	r3, [pc, #124]	; (2238 <_sercom_get_default_pad+0x1b8>)
    21bc:	e000      	b.n	21c0 <_sercom_get_default_pad+0x140>
	}

	Assert(false);
	return 0;
    21be:	2300      	movs	r3, #0
}
    21c0:	0018      	movs	r0, r3
    21c2:	46bd      	mov	sp, r7
    21c4:	b002      	add	sp, #8
    21c6:	bd80      	pop	{r7, pc}
    21c8:	42001000 	.word	0x42001000
    21cc:	42000800 	.word	0x42000800
    21d0:	42000c00 	.word	0x42000c00
    21d4:	42001800 	.word	0x42001800
    21d8:	42001c00 	.word	0x42001c00
    21dc:	42001400 	.word	0x42001400
    21e0:	00040003 	.word	0x00040003
    21e4:	00050003 	.word	0x00050003
    21e8:	00060003 	.word	0x00060003
    21ec:	00070003 	.word	0x00070003
    21f0:	00010003 	.word	0x00010003
    21f4:	001e0003 	.word	0x001e0003
    21f8:	001f0003 	.word	0x001f0003
    21fc:	00080003 	.word	0x00080003
    2200:	00090003 	.word	0x00090003
    2204:	000a0003 	.word	0x000a0003
    2208:	000b0003 	.word	0x000b0003
    220c:	00100003 	.word	0x00100003
    2210:	00110003 	.word	0x00110003
    2214:	00120003 	.word	0x00120003
    2218:	00130003 	.word	0x00130003
    221c:	000c0003 	.word	0x000c0003
    2220:	000d0003 	.word	0x000d0003
    2224:	000e0003 	.word	0x000e0003
    2228:	000f0003 	.word	0x000f0003
    222c:	00160003 	.word	0x00160003
    2230:	00170003 	.word	0x00170003
    2234:	00180003 	.word	0x00180003
    2238:	00190003 	.word	0x00190003

0000223c <_sercom_get_sercom_inst_index>:
 *
 * \return Index of given instance.
 */
uint8_t _sercom_get_sercom_inst_index(
		Sercom *const sercom_instance)
{
    223c:	b590      	push	{r4, r7, lr}
    223e:	b08b      	sub	sp, #44	; 0x2c
    2240:	af00      	add	r7, sp, #0
    2242:	6078      	str	r0, [r7, #4]
	/* Save all available SERCOM instances for compare */
	Sercom *sercom_instances[SERCOM_INST_NUM] = SERCOM_INSTS;
    2244:	230c      	movs	r3, #12
    2246:	18fb      	adds	r3, r7, r3
    2248:	4a0f      	ldr	r2, [pc, #60]	; (2288 <_sercom_get_sercom_inst_index+0x4c>)
    224a:	ca13      	ldmia	r2!, {r0, r1, r4}
    224c:	c313      	stmia	r3!, {r0, r1, r4}
    224e:	ca13      	ldmia	r2!, {r0, r1, r4}
    2250:	c313      	stmia	r3!, {r0, r1, r4}

	/* Find index for sercom instance */
	for (uint32_t i = 0; i < SERCOM_INST_NUM; i++) {
    2252:	2300      	movs	r3, #0
    2254:	627b      	str	r3, [r7, #36]	; 0x24
    2256:	e00e      	b.n	2276 <_sercom_get_sercom_inst_index+0x3a>
		if ((uintptr_t)sercom_instance == (uintptr_t)sercom_instances[i]) {
    2258:	230c      	movs	r3, #12
    225a:	18fb      	adds	r3, r7, r3
    225c:	6a7a      	ldr	r2, [r7, #36]	; 0x24
    225e:	0092      	lsls	r2, r2, #2
    2260:	58d3      	ldr	r3, [r2, r3]
    2262:	1e1a      	subs	r2, r3, #0
    2264:	687b      	ldr	r3, [r7, #4]
    2266:	429a      	cmp	r2, r3
    2268:	d102      	bne.n	2270 <_sercom_get_sercom_inst_index+0x34>
			return i;
    226a:	6a7b      	ldr	r3, [r7, #36]	; 0x24
    226c:	b2db      	uxtb	r3, r3
    226e:	e006      	b.n	227e <_sercom_get_sercom_inst_index+0x42>
{
	/* Save all available SERCOM instances for compare */
	Sercom *sercom_instances[SERCOM_INST_NUM] = SERCOM_INSTS;

	/* Find index for sercom instance */
	for (uint32_t i = 0; i < SERCOM_INST_NUM; i++) {
    2270:	6a7b      	ldr	r3, [r7, #36]	; 0x24
    2272:	3301      	adds	r3, #1
    2274:	627b      	str	r3, [r7, #36]	; 0x24
    2276:	6a7b      	ldr	r3, [r7, #36]	; 0x24
    2278:	2b05      	cmp	r3, #5
    227a:	d9ed      	bls.n	2258 <_sercom_get_sercom_inst_index+0x1c>
		}
	}

	/* Invalid data given */
	Assert(false);
	return 0;
    227c:	2300      	movs	r3, #0
}
    227e:	0018      	movs	r0, r3
    2280:	46bd      	mov	sp, r7
    2282:	b00b      	add	sp, #44	; 0x2c
    2284:	bd90      	pop	{r4, r7, pc}
    2286:	46c0      	nop			; (mov r8, r8)
    2288:	0000611c 	.word	0x0000611c

0000228c <_system_dummy_init>:
 * Dummy initialization function, used as a weak alias target for the various
 * init functions called by \ref system_init().
 */
void _system_dummy_init(void);
void _system_dummy_init(void)
{
    228c:	b580      	push	{r7, lr}
    228e:	af00      	add	r7, sp, #0
	return;
    2290:	46c0      	nop			; (mov r8, r8)
}
    2292:	46bd      	mov	sp, r7
    2294:	bd80      	pop	{r7, pc}
    2296:	46c0      	nop			; (mov r8, r8)

00002298 <system_init>:
 *  - Board hardware initialization (via the Board module)
 *  - Event system driver initialization (via the EVSYS module)
 *  - External Interrupt driver initialization (via the EXTINT module)
 */
void system_init(void)
{
    2298:	b580      	push	{r7, lr}
    229a:	af00      	add	r7, sp, #0
	/* Configure GCLK and clock sources according to conf_clocks.h */
	system_clock_init();
    229c:	4b06      	ldr	r3, [pc, #24]	; (22b8 <system_init+0x20>)
    229e:	4798      	blx	r3

	/* Initialize board hardware */
	system_board_init();
    22a0:	4b06      	ldr	r3, [pc, #24]	; (22bc <system_init+0x24>)
    22a2:	4798      	blx	r3

	/* Initialize EVSYS hardware */
	_system_events_init();
    22a4:	4b06      	ldr	r3, [pc, #24]	; (22c0 <system_init+0x28>)
    22a6:	4798      	blx	r3

	/* Initialize External hardware */
	_system_extint_init();
    22a8:	4b06      	ldr	r3, [pc, #24]	; (22c4 <system_init+0x2c>)
    22aa:	4798      	blx	r3
	
	/* Initialize DIVAS hardware */
	_system_divas_init();
    22ac:	4b06      	ldr	r3, [pc, #24]	; (22c8 <system_init+0x30>)
    22ae:	4798      	blx	r3
}
    22b0:	46c0      	nop			; (mov r8, r8)
    22b2:	46bd      	mov	sp, r7
    22b4:	bd80      	pop	{r7, pc}
    22b6:	46c0      	nop			; (mov r8, r8)
    22b8:	0000325d 	.word	0x0000325d
    22bc:	000023c9 	.word	0x000023c9
    22c0:	0000228d 	.word	0x0000228d
    22c4:	0000228d 	.word	0x0000228d
    22c8:	0000228d 	.word	0x0000228d

000022cc <system_pinmux_get_group_from_gpio_pin>:
 *
 * \return Base address of the associated PORT module.
 */
static inline PortGroup* system_pinmux_get_group_from_gpio_pin(
		const uint8_t gpio_pin)
{
    22cc:	b580      	push	{r7, lr}
    22ce:	b084      	sub	sp, #16
    22d0:	af00      	add	r7, sp, #0
    22d2:	0002      	movs	r2, r0
    22d4:	1dfb      	adds	r3, r7, #7
    22d6:	701a      	strb	r2, [r3, #0]
	uint8_t port_index  = (gpio_pin / 128);
    22d8:	230f      	movs	r3, #15
    22da:	18fb      	adds	r3, r7, r3
    22dc:	1dfa      	adds	r2, r7, #7
    22de:	7812      	ldrb	r2, [r2, #0]
    22e0:	09d2      	lsrs	r2, r2, #7
    22e2:	701a      	strb	r2, [r3, #0]
	uint8_t group_index = (gpio_pin / 32);
    22e4:	230e      	movs	r3, #14
    22e6:	18fb      	adds	r3, r7, r3
    22e8:	1dfa      	adds	r2, r7, #7
    22ea:	7812      	ldrb	r2, [r2, #0]
    22ec:	0952      	lsrs	r2, r2, #5
    22ee:	701a      	strb	r2, [r3, #0]

	/* Array of available ports */
	Port *const ports[PORT_INST_NUM] = PORT_INSTS;
    22f0:	4b0d      	ldr	r3, [pc, #52]	; (2328 <system_pinmux_get_group_from_gpio_pin+0x5c>)
    22f2:	60bb      	str	r3, [r7, #8]

	if (port_index < PORT_INST_NUM) {
    22f4:	230f      	movs	r3, #15
    22f6:	18fb      	adds	r3, r7, r3
    22f8:	781b      	ldrb	r3, [r3, #0]
    22fa:	2b00      	cmp	r3, #0
    22fc:	d10f      	bne.n	231e <system_pinmux_get_group_from_gpio_pin+0x52>
		return &(ports[port_index]->Group[group_index]);
    22fe:	230f      	movs	r3, #15
    2300:	18fb      	adds	r3, r7, r3
    2302:	781b      	ldrb	r3, [r3, #0]
    2304:	009b      	lsls	r3, r3, #2
    2306:	2210      	movs	r2, #16
    2308:	4694      	mov	ip, r2
    230a:	44bc      	add	ip, r7
    230c:	4463      	add	r3, ip
    230e:	3b08      	subs	r3, #8
    2310:	681a      	ldr	r2, [r3, #0]
    2312:	230e      	movs	r3, #14
    2314:	18fb      	adds	r3, r7, r3
    2316:	781b      	ldrb	r3, [r3, #0]
    2318:	01db      	lsls	r3, r3, #7
    231a:	18d3      	adds	r3, r2, r3
    231c:	e000      	b.n	2320 <system_pinmux_get_group_from_gpio_pin+0x54>
	} else {
		Assert(false);
		return NULL;
    231e:	2300      	movs	r3, #0
	}
}
    2320:	0018      	movs	r0, r3
    2322:	46bd      	mov	sp, r7
    2324:	b004      	add	sp, #16
    2326:	bd80      	pop	{r7, pc}
    2328:	41004400 	.word	0x41004400

0000232c <port_get_group_from_gpio_pin>:
 *
 *  \return Base address of the associated PORT module.
 */
static inline PortGroup* port_get_group_from_gpio_pin(
		const uint8_t gpio_pin)
{
    232c:	b580      	push	{r7, lr}
    232e:	b082      	sub	sp, #8
    2330:	af00      	add	r7, sp, #0
    2332:	0002      	movs	r2, r0
    2334:	1dfb      	adds	r3, r7, #7
    2336:	701a      	strb	r2, [r3, #0]
	return system_pinmux_get_group_from_gpio_pin(gpio_pin);
    2338:	1dfb      	adds	r3, r7, #7
    233a:	781b      	ldrb	r3, [r3, #0]
    233c:	0018      	movs	r0, r3
    233e:	4b03      	ldr	r3, [pc, #12]	; (234c <port_get_group_from_gpio_pin+0x20>)
    2340:	4798      	blx	r3
    2342:	0003      	movs	r3, r0
}
    2344:	0018      	movs	r0, r3
    2346:	46bd      	mov	sp, r7
    2348:	b002      	add	sp, #8
    234a:	bd80      	pop	{r7, pc}
    234c:	000022cd 	.word	0x000022cd

00002350 <port_get_config_defaults>:
 *
 *  \param[out] config  Configuration structure to initialize to default values
 */
static inline void port_get_config_defaults(
		struct port_config *const config)
{
    2350:	b580      	push	{r7, lr}
    2352:	b082      	sub	sp, #8
    2354:	af00      	add	r7, sp, #0
    2356:	6078      	str	r0, [r7, #4]
	/* Sanity check arguments */
	Assert(config);

	/* Default configuration values */
	config->direction  = PORT_PIN_DIR_INPUT;
    2358:	687b      	ldr	r3, [r7, #4]
    235a:	2200      	movs	r2, #0
    235c:	701a      	strb	r2, [r3, #0]
	config->input_pull = PORT_PIN_PULL_UP;
    235e:	687b      	ldr	r3, [r7, #4]
    2360:	2201      	movs	r2, #1
    2362:	705a      	strb	r2, [r3, #1]
	config->powersave  = false;
    2364:	687b      	ldr	r3, [r7, #4]
    2366:	2200      	movs	r2, #0
    2368:	709a      	strb	r2, [r3, #2]
}
    236a:	46c0      	nop			; (mov r8, r8)
    236c:	46bd      	mov	sp, r7
    236e:	b002      	add	sp, #8
    2370:	bd80      	pop	{r7, pc}
    2372:	46c0      	nop			; (mov r8, r8)

00002374 <port_pin_set_output_level>:
 *  \param[in] level     Logical level to set the given pin to
 */
static inline void port_pin_set_output_level(
		const uint8_t gpio_pin,
		const bool level)
{
    2374:	b580      	push	{r7, lr}
    2376:	b084      	sub	sp, #16
    2378:	af00      	add	r7, sp, #0
    237a:	0002      	movs	r2, r0
    237c:	1dfb      	adds	r3, r7, #7
    237e:	701a      	strb	r2, [r3, #0]
    2380:	1dbb      	adds	r3, r7, #6
    2382:	1c0a      	adds	r2, r1, #0
    2384:	701a      	strb	r2, [r3, #0]
	PortGroup *const port_base = port_get_group_from_gpio_pin(gpio_pin);
    2386:	1dfb      	adds	r3, r7, #7
    2388:	781b      	ldrb	r3, [r3, #0]
    238a:	0018      	movs	r0, r3
    238c:	4b0d      	ldr	r3, [pc, #52]	; (23c4 <port_pin_set_output_level+0x50>)
    238e:	4798      	blx	r3
    2390:	0003      	movs	r3, r0
    2392:	60fb      	str	r3, [r7, #12]
	uint32_t pin_mask  = (1UL << (gpio_pin % 32));
    2394:	1dfb      	adds	r3, r7, #7
    2396:	781b      	ldrb	r3, [r3, #0]
    2398:	221f      	movs	r2, #31
    239a:	4013      	ands	r3, r2
    239c:	2201      	movs	r2, #1
    239e:	409a      	lsls	r2, r3
    23a0:	0013      	movs	r3, r2
    23a2:	60bb      	str	r3, [r7, #8]

	/* Set the pin to high or low atomically based on the requested level */
	if (level) {
    23a4:	1dbb      	adds	r3, r7, #6
    23a6:	781b      	ldrb	r3, [r3, #0]
    23a8:	2b00      	cmp	r3, #0
    23aa:	d003      	beq.n	23b4 <port_pin_set_output_level+0x40>
		port_base->OUTSET.reg = pin_mask;
    23ac:	68fb      	ldr	r3, [r7, #12]
    23ae:	68ba      	ldr	r2, [r7, #8]
    23b0:	619a      	str	r2, [r3, #24]
	} else {
		port_base->OUTCLR.reg = pin_mask;
	}
}
    23b2:	e002      	b.n	23ba <port_pin_set_output_level+0x46>

	/* Set the pin to high or low atomically based on the requested level */
	if (level) {
		port_base->OUTSET.reg = pin_mask;
	} else {
		port_base->OUTCLR.reg = pin_mask;
    23b4:	68fb      	ldr	r3, [r7, #12]
    23b6:	68ba      	ldr	r2, [r7, #8]
    23b8:	615a      	str	r2, [r3, #20]
	}
}
    23ba:	46c0      	nop			; (mov r8, r8)
    23bc:	46bd      	mov	sp, r7
    23be:	b004      	add	sp, #16
    23c0:	bd80      	pop	{r7, pc}
    23c2:	46c0      	nop			; (mov r8, r8)
    23c4:	0000232d 	.word	0x0000232d

000023c8 <system_board_init>:
void board_init(void);
#  pragma weak board_init=system_board_init
#endif

void system_board_init(void)
{
    23c8:	b580      	push	{r7, lr}
    23ca:	b082      	sub	sp, #8
    23cc:	af00      	add	r7, sp, #0
	struct port_config pin_conf;
	port_get_config_defaults(&pin_conf);
    23ce:	1d3b      	adds	r3, r7, #4
    23d0:	0018      	movs	r0, r3
    23d2:	4b0e      	ldr	r3, [pc, #56]	; (240c <system_board_init+0x44>)
    23d4:	4798      	blx	r3

	/* Configure LEDs as outputs, turn them off */
	pin_conf.direction  = PORT_PIN_DIR_OUTPUT;
    23d6:	1d3b      	adds	r3, r7, #4
    23d8:	2201      	movs	r2, #1
    23da:	701a      	strb	r2, [r3, #0]
	port_pin_set_config(LED_0_PIN, &pin_conf);
    23dc:	1d3b      	adds	r3, r7, #4
    23de:	0019      	movs	r1, r3
    23e0:	203e      	movs	r0, #62	; 0x3e
    23e2:	4b0b      	ldr	r3, [pc, #44]	; (2410 <system_board_init+0x48>)
    23e4:	4798      	blx	r3
	port_pin_set_output_level(LED_0_PIN, LED_0_INACTIVE);
    23e6:	2101      	movs	r1, #1
    23e8:	203e      	movs	r0, #62	; 0x3e
    23ea:	4b0a      	ldr	r3, [pc, #40]	; (2414 <system_board_init+0x4c>)
    23ec:	4798      	blx	r3

	/* Set buttons as inputs */
	pin_conf.direction  = PORT_PIN_DIR_INPUT;
    23ee:	1d3b      	adds	r3, r7, #4
    23f0:	2200      	movs	r2, #0
    23f2:	701a      	strb	r2, [r3, #0]
	pin_conf.input_pull = PORT_PIN_PULL_UP;
    23f4:	1d3b      	adds	r3, r7, #4
    23f6:	2201      	movs	r2, #1
    23f8:	705a      	strb	r2, [r3, #1]
	port_pin_set_config(BUTTON_0_PIN, &pin_conf);
    23fa:	1d3b      	adds	r3, r7, #4
    23fc:	0019      	movs	r1, r3
    23fe:	200f      	movs	r0, #15
    2400:	4b03      	ldr	r3, [pc, #12]	; (2410 <system_board_init+0x48>)
    2402:	4798      	blx	r3
}
    2404:	46c0      	nop			; (mov r8, r8)
    2406:	46bd      	mov	sp, r7
    2408:	b002      	add	sp, #8
    240a:	bd80      	pop	{r7, pc}
    240c:	00002351 	.word	0x00002351
    2410:	00001f7d 	.word	0x00001f7d
    2414:	00002375 	.word	0x00002375

00002418 <cpu_irq_enter_critical>:
 */
volatile bool g_interrupt_enabled = true;
#endif

void cpu_irq_enter_critical(void)
{
    2418:	b580      	push	{r7, lr}
    241a:	b082      	sub	sp, #8
    241c:	af00      	add	r7, sp, #0
	if (cpu_irq_critical_section_counter == 0) {
    241e:	4b10      	ldr	r3, [pc, #64]	; (2460 <cpu_irq_enter_critical+0x48>)
    2420:	681b      	ldr	r3, [r3, #0]
    2422:	2b00      	cmp	r3, #0
    2424:	d112      	bne.n	244c <cpu_irq_enter_critical+0x34>
 */
__attribute__( ( always_inline ) ) __STATIC_INLINE uint32_t __get_PRIMASK(void)
{
  uint32_t result;

  __ASM volatile ("MRS %0, primask" : "=r" (result) );
    2426:	f3ef 8310 	mrs	r3, PRIMASK
    242a:	607b      	str	r3, [r7, #4]
  return(result);
    242c:	687b      	ldr	r3, [r7, #4]
		if (cpu_irq_is_enabled()) {
    242e:	2b00      	cmp	r3, #0
    2430:	d109      	bne.n	2446 <cpu_irq_enter_critical+0x2e>
  This function disables IRQ interrupts by setting the I-bit in the CPSR.
  Can only be executed in Privileged modes.
 */
__attribute__( ( always_inline ) ) __STATIC_INLINE void __disable_irq(void)
{
  __ASM volatile ("cpsid i" : : : "memory");
    2432:	b672      	cpsid	i
    This function ensures the apparent order of the explicit memory operations before
    and after the instruction, without ensuring their completion.
 */
__attribute__( ( always_inline ) ) __STATIC_INLINE void __DMB(void)
{
  __ASM volatile ("dmb");
    2434:	f3bf 8f5f 	dmb	sy
			cpu_irq_disable();
    2438:	4b0a      	ldr	r3, [pc, #40]	; (2464 <cpu_irq_enter_critical+0x4c>)
    243a:	2200      	movs	r2, #0
    243c:	701a      	strb	r2, [r3, #0]
			cpu_irq_prev_interrupt_state = true;
    243e:	4b0a      	ldr	r3, [pc, #40]	; (2468 <cpu_irq_enter_critical+0x50>)
    2440:	2201      	movs	r2, #1
    2442:	701a      	strb	r2, [r3, #0]
    2444:	e002      	b.n	244c <cpu_irq_enter_critical+0x34>
		} else {
			/* Make sure the to save the prev state as false */
			cpu_irq_prev_interrupt_state = false;
    2446:	4b08      	ldr	r3, [pc, #32]	; (2468 <cpu_irq_enter_critical+0x50>)
    2448:	2200      	movs	r2, #0
    244a:	701a      	strb	r2, [r3, #0]
		}

	}

	cpu_irq_critical_section_counter++;
    244c:	4b04      	ldr	r3, [pc, #16]	; (2460 <cpu_irq_enter_critical+0x48>)
    244e:	681b      	ldr	r3, [r3, #0]
    2450:	1c5a      	adds	r2, r3, #1
    2452:	4b03      	ldr	r3, [pc, #12]	; (2460 <cpu_irq_enter_critical+0x48>)
    2454:	601a      	str	r2, [r3, #0]
}
    2456:	46c0      	nop			; (mov r8, r8)
    2458:	46bd      	mov	sp, r7
    245a:	b002      	add	sp, #8
    245c:	bd80      	pop	{r7, pc}
    245e:	46c0      	nop			; (mov r8, r8)
    2460:	200006cc 	.word	0x200006cc
    2464:	2000001f 	.word	0x2000001f
    2468:	200006d0 	.word	0x200006d0

0000246c <cpu_irq_leave_critical>:

void cpu_irq_leave_critical(void)
{
    246c:	b580      	push	{r7, lr}
    246e:	af00      	add	r7, sp, #0
	/* Check if the user is trying to leave a critical section when not in a critical section */
	Assert(cpu_irq_critical_section_counter > 0);

	cpu_irq_critical_section_counter--;
    2470:	4b0b      	ldr	r3, [pc, #44]	; (24a0 <cpu_irq_leave_critical+0x34>)
    2472:	681b      	ldr	r3, [r3, #0]
    2474:	1e5a      	subs	r2, r3, #1
    2476:	4b0a      	ldr	r3, [pc, #40]	; (24a0 <cpu_irq_leave_critical+0x34>)
    2478:	601a      	str	r2, [r3, #0]

	/* Only enable global interrupts when the counter reaches 0 and the state of the global interrupt flag
	   was enabled when entering critical state */
	if ((cpu_irq_critical_section_counter == 0) && (cpu_irq_prev_interrupt_state)) {
    247a:	4b09      	ldr	r3, [pc, #36]	; (24a0 <cpu_irq_leave_critical+0x34>)
    247c:	681b      	ldr	r3, [r3, #0]
    247e:	2b00      	cmp	r3, #0
    2480:	d10a      	bne.n	2498 <cpu_irq_leave_critical+0x2c>
    2482:	4b08      	ldr	r3, [pc, #32]	; (24a4 <cpu_irq_leave_critical+0x38>)
    2484:	781b      	ldrb	r3, [r3, #0]
    2486:	b2db      	uxtb	r3, r3
    2488:	2b00      	cmp	r3, #0
    248a:	d005      	beq.n	2498 <cpu_irq_leave_critical+0x2c>
		cpu_irq_enable();
    248c:	4b06      	ldr	r3, [pc, #24]	; (24a8 <cpu_irq_leave_critical+0x3c>)
    248e:	2201      	movs	r2, #1
    2490:	701a      	strb	r2, [r3, #0]
    2492:	f3bf 8f5f 	dmb	sy
  This function enables IRQ interrupts by clearing the I-bit in the CPSR.
  Can only be executed in Privileged modes.
 */
__attribute__( ( always_inline ) ) __STATIC_INLINE void __enable_irq(void)
{
  __ASM volatile ("cpsie i" : : : "memory");
    2496:	b662      	cpsie	i
	}
}
    2498:	46c0      	nop			; (mov r8, r8)
    249a:	46bd      	mov	sp, r7
    249c:	bd80      	pop	{r7, pc}
    249e:	46c0      	nop			; (mov r8, r8)
    24a0:	200006cc 	.word	0x200006cc
    24a4:	200006d0 	.word	0x200006d0
    24a8:	2000001f 	.word	0x2000001f

000024ac <system_pinmux_get_group_from_gpio_pin>:
 *
 * \return Base address of the associated PORT module.
 */
static inline PortGroup* system_pinmux_get_group_from_gpio_pin(
		const uint8_t gpio_pin)
{
    24ac:	b580      	push	{r7, lr}
    24ae:	b084      	sub	sp, #16
    24b0:	af00      	add	r7, sp, #0
    24b2:	0002      	movs	r2, r0
    24b4:	1dfb      	adds	r3, r7, #7
    24b6:	701a      	strb	r2, [r3, #0]
	uint8_t port_index  = (gpio_pin / 128);
    24b8:	230f      	movs	r3, #15
    24ba:	18fb      	adds	r3, r7, r3
    24bc:	1dfa      	adds	r2, r7, #7
    24be:	7812      	ldrb	r2, [r2, #0]
    24c0:	09d2      	lsrs	r2, r2, #7
    24c2:	701a      	strb	r2, [r3, #0]
	uint8_t group_index = (gpio_pin / 32);
    24c4:	230e      	movs	r3, #14
    24c6:	18fb      	adds	r3, r7, r3
    24c8:	1dfa      	adds	r2, r7, #7
    24ca:	7812      	ldrb	r2, [r2, #0]
    24cc:	0952      	lsrs	r2, r2, #5
    24ce:	701a      	strb	r2, [r3, #0]

	/* Array of available ports */
	Port *const ports[PORT_INST_NUM] = PORT_INSTS;
    24d0:	4b0d      	ldr	r3, [pc, #52]	; (2508 <system_pinmux_get_group_from_gpio_pin+0x5c>)
    24d2:	60bb      	str	r3, [r7, #8]

	if (port_index < PORT_INST_NUM) {
    24d4:	230f      	movs	r3, #15
    24d6:	18fb      	adds	r3, r7, r3
    24d8:	781b      	ldrb	r3, [r3, #0]
    24da:	2b00      	cmp	r3, #0
    24dc:	d10f      	bne.n	24fe <system_pinmux_get_group_from_gpio_pin+0x52>
		return &(ports[port_index]->Group[group_index]);
    24de:	230f      	movs	r3, #15
    24e0:	18fb      	adds	r3, r7, r3
    24e2:	781b      	ldrb	r3, [r3, #0]
    24e4:	009b      	lsls	r3, r3, #2
    24e6:	2210      	movs	r2, #16
    24e8:	4694      	mov	ip, r2
    24ea:	44bc      	add	ip, r7
    24ec:	4463      	add	r3, ip
    24ee:	3b08      	subs	r3, #8
    24f0:	681a      	ldr	r2, [r3, #0]
    24f2:	230e      	movs	r3, #14
    24f4:	18fb      	adds	r3, r7, r3
    24f6:	781b      	ldrb	r3, [r3, #0]
    24f8:	01db      	lsls	r3, r3, #7
    24fa:	18d3      	adds	r3, r2, r3
    24fc:	e000      	b.n	2500 <system_pinmux_get_group_from_gpio_pin+0x54>
	} else {
		Assert(false);
		return NULL;
    24fe:	2300      	movs	r3, #0
	}
}
    2500:	0018      	movs	r0, r3
    2502:	46bd      	mov	sp, r7
    2504:	b004      	add	sp, #16
    2506:	bd80      	pop	{r7, pc}
    2508:	41004400 	.word	0x41004400

0000250c <_system_pinmux_config>:
 */
static void _system_pinmux_config(
		PortGroup *const port,
		const uint32_t pin_mask,
		const struct system_pinmux_config *const config)
{
    250c:	b580      	push	{r7, lr}
    250e:	b088      	sub	sp, #32
    2510:	af00      	add	r7, sp, #0
    2512:	60f8      	str	r0, [r7, #12]
    2514:	60b9      	str	r1, [r7, #8]
    2516:	607a      	str	r2, [r7, #4]
	Assert(port);
	Assert(config);

	/* Track the configuration bits into a temporary variable before writing */
	uint32_t pin_cfg = 0;
    2518:	2300      	movs	r3, #0
    251a:	61fb      	str	r3, [r7, #28]

	/* Enabled powersave mode, don't create configuration */
	if (!config->powersave) {
    251c:	687b      	ldr	r3, [r7, #4]
    251e:	78db      	ldrb	r3, [r3, #3]
    2520:	2201      	movs	r2, #1
    2522:	4053      	eors	r3, r2
    2524:	b2db      	uxtb	r3, r3
    2526:	2b00      	cmp	r3, #0
    2528:	d035      	beq.n	2596 <_system_pinmux_config+0x8a>
		/* Enable the pin peripheral MUX flag if non-GPIO selected (pinmux will
		 * be written later) and store the new MUX mask */
		if (config->mux_position != SYSTEM_PINMUX_GPIO) {
    252a:	687b      	ldr	r3, [r7, #4]
    252c:	781b      	ldrb	r3, [r3, #0]
    252e:	2b80      	cmp	r3, #128	; 0x80
    2530:	d00b      	beq.n	254a <_system_pinmux_config+0x3e>
			pin_cfg |= PORT_WRCONFIG_PMUXEN;
    2532:	69fb      	ldr	r3, [r7, #28]
    2534:	2280      	movs	r2, #128	; 0x80
    2536:	0252      	lsls	r2, r2, #9
    2538:	4313      	orrs	r3, r2
    253a:	61fb      	str	r3, [r7, #28]
			pin_cfg |= (config->mux_position << PORT_WRCONFIG_PMUX_Pos);
    253c:	687b      	ldr	r3, [r7, #4]
    253e:	781b      	ldrb	r3, [r3, #0]
    2540:	061b      	lsls	r3, r3, #24
    2542:	001a      	movs	r2, r3
    2544:	69fb      	ldr	r3, [r7, #28]
    2546:	4313      	orrs	r3, r2
    2548:	61fb      	str	r3, [r7, #28]
		}

		/* Check if the user has requested that the input buffer be enabled */
		if ((config->direction == SYSTEM_PINMUX_PIN_DIR_INPUT) ||
    254a:	687b      	ldr	r3, [r7, #4]
    254c:	785b      	ldrb	r3, [r3, #1]
    254e:	2b00      	cmp	r3, #0
    2550:	d003      	beq.n	255a <_system_pinmux_config+0x4e>
				(config->direction == SYSTEM_PINMUX_PIN_DIR_OUTPUT_WITH_READBACK)) {
    2552:	687b      	ldr	r3, [r7, #4]
    2554:	785b      	ldrb	r3, [r3, #1]
			pin_cfg |= PORT_WRCONFIG_PMUXEN;
			pin_cfg |= (config->mux_position << PORT_WRCONFIG_PMUX_Pos);
		}

		/* Check if the user has requested that the input buffer be enabled */
		if ((config->direction == SYSTEM_PINMUX_PIN_DIR_INPUT) ||
    2556:	2b02      	cmp	r3, #2
    2558:	d110      	bne.n	257c <_system_pinmux_config+0x70>
				(config->direction == SYSTEM_PINMUX_PIN_DIR_OUTPUT_WITH_READBACK)) {
			/* Enable input buffer flag */
			pin_cfg |= PORT_WRCONFIG_INEN;
    255a:	69fb      	ldr	r3, [r7, #28]
    255c:	2280      	movs	r2, #128	; 0x80
    255e:	0292      	lsls	r2, r2, #10
    2560:	4313      	orrs	r3, r2
    2562:	61fb      	str	r3, [r7, #28]

			/* Enable pull-up/pull-down control flag if requested */
			if (config->input_pull != SYSTEM_PINMUX_PIN_PULL_NONE) {
    2564:	687b      	ldr	r3, [r7, #4]
    2566:	789b      	ldrb	r3, [r3, #2]
    2568:	2b00      	cmp	r3, #0
    256a:	d004      	beq.n	2576 <_system_pinmux_config+0x6a>
				pin_cfg |= PORT_WRCONFIG_PULLEN;
    256c:	69fb      	ldr	r3, [r7, #28]
    256e:	2280      	movs	r2, #128	; 0x80
    2570:	02d2      	lsls	r2, r2, #11
    2572:	4313      	orrs	r3, r2
    2574:	61fb      	str	r3, [r7, #28]
			}

			/* Clear the port DIR bits to disable the output buffer */
			port->DIRCLR.reg = pin_mask;
    2576:	68fb      	ldr	r3, [r7, #12]
    2578:	68ba      	ldr	r2, [r7, #8]
    257a:	605a      	str	r2, [r3, #4]
		}

		/* Check if the user has requested that the output buffer be enabled */
		if ((config->direction == SYSTEM_PINMUX_PIN_DIR_OUTPUT) ||
    257c:	687b      	ldr	r3, [r7, #4]
    257e:	785b      	ldrb	r3, [r3, #1]
    2580:	2b01      	cmp	r3, #1
    2582:	d003      	beq.n	258c <_system_pinmux_config+0x80>
				(config->direction == SYSTEM_PINMUX_PIN_DIR_OUTPUT_WITH_READBACK)) {
    2584:	687b      	ldr	r3, [r7, #4]
    2586:	785b      	ldrb	r3, [r3, #1]
			/* Clear the port DIR bits to disable the output buffer */
			port->DIRCLR.reg = pin_mask;
		}

		/* Check if the user has requested that the output buffer be enabled */
		if ((config->direction == SYSTEM_PINMUX_PIN_DIR_OUTPUT) ||
    2588:	2b02      	cmp	r3, #2
    258a:	d107      	bne.n	259c <_system_pinmux_config+0x90>
				(config->direction == SYSTEM_PINMUX_PIN_DIR_OUTPUT_WITH_READBACK)) {
			/* Cannot use a pull-up if the output driver is enabled,
			 * if requested the input buffer can only sample the current
			 * output state */
			pin_cfg &= ~PORT_WRCONFIG_PULLEN;
    258c:	69fb      	ldr	r3, [r7, #28]
    258e:	4a22      	ldr	r2, [pc, #136]	; (2618 <_system_pinmux_config+0x10c>)
    2590:	4013      	ands	r3, r2
    2592:	61fb      	str	r3, [r7, #28]
    2594:	e002      	b.n	259c <_system_pinmux_config+0x90>
		}
	} else {
		port->DIRCLR.reg = pin_mask;
    2596:	68fb      	ldr	r3, [r7, #12]
    2598:	68ba      	ldr	r2, [r7, #8]
    259a:	605a      	str	r2, [r3, #4]
	}

	/* The Write Configuration register (WRCONFIG) requires the
	 * pins to to grouped into two 16-bit half-words - split them out here */
	uint32_t lower_pin_mask = (pin_mask & 0xFFFF);
    259c:	68bb      	ldr	r3, [r7, #8]
    259e:	041b      	lsls	r3, r3, #16
    25a0:	0c1b      	lsrs	r3, r3, #16
    25a2:	61bb      	str	r3, [r7, #24]
	uint32_t upper_pin_mask = (pin_mask >> 16);
    25a4:	68bb      	ldr	r3, [r7, #8]
    25a6:	0c1b      	lsrs	r3, r3, #16
    25a8:	617b      	str	r3, [r7, #20]

	/* Configure the lower 16-bits of the port to the desired configuration,
	 * including the pin peripheral multiplexer just in case it is enabled */
	port->WRCONFIG.reg
		= (lower_pin_mask << PORT_WRCONFIG_PINMASK_Pos) |
    25aa:	69ba      	ldr	r2, [r7, #24]
    25ac:	69fb      	ldr	r3, [r7, #28]
    25ae:	4313      	orrs	r3, r2
			pin_cfg | PORT_WRCONFIG_WRPMUX | PORT_WRCONFIG_WRPINCFG;
    25b0:	22a0      	movs	r2, #160	; 0xa0
    25b2:	05d2      	lsls	r2, r2, #23
    25b4:	431a      	orrs	r2, r3
	uint32_t upper_pin_mask = (pin_mask >> 16);

	/* Configure the lower 16-bits of the port to the desired configuration,
	 * including the pin peripheral multiplexer just in case it is enabled */
	port->WRCONFIG.reg
		= (lower_pin_mask << PORT_WRCONFIG_PINMASK_Pos) |
    25b6:	68fb      	ldr	r3, [r7, #12]
    25b8:	629a      	str	r2, [r3, #40]	; 0x28
			pin_cfg | PORT_WRCONFIG_WRPMUX | PORT_WRCONFIG_WRPINCFG;

	/* Configure the upper 16-bits of the port to the desired configuration,
	 * including the pin peripheral multiplexer just in case it is enabled */
	port->WRCONFIG.reg
		= (upper_pin_mask << PORT_WRCONFIG_PINMASK_Pos) |
    25ba:	697a      	ldr	r2, [r7, #20]
    25bc:	69fb      	ldr	r3, [r7, #28]
    25be:	4313      	orrs	r3, r2
			pin_cfg | PORT_WRCONFIG_WRPMUX | PORT_WRCONFIG_WRPINCFG |
    25c0:	22d0      	movs	r2, #208	; 0xd0
    25c2:	0612      	lsls	r2, r2, #24
    25c4:	431a      	orrs	r2, r3
			pin_cfg | PORT_WRCONFIG_WRPMUX | PORT_WRCONFIG_WRPINCFG;

	/* Configure the upper 16-bits of the port to the desired configuration,
	 * including the pin peripheral multiplexer just in case it is enabled */
	port->WRCONFIG.reg
		= (upper_pin_mask << PORT_WRCONFIG_PINMASK_Pos) |
    25c6:	68fb      	ldr	r3, [r7, #12]
    25c8:	629a      	str	r2, [r3, #40]	; 0x28
			pin_cfg | PORT_WRCONFIG_WRPMUX | PORT_WRCONFIG_WRPINCFG |
			PORT_WRCONFIG_HWSEL;

	if(!config->powersave) {
    25ca:	687b      	ldr	r3, [r7, #4]
    25cc:	78db      	ldrb	r3, [r3, #3]
    25ce:	2201      	movs	r2, #1
    25d0:	4053      	eors	r3, r2
    25d2:	b2db      	uxtb	r3, r3
    25d4:	2b00      	cmp	r3, #0
    25d6:	d01a      	beq.n	260e <_system_pinmux_config+0x102>
		/* Set the pull-up state once the port pins are configured if one was
		 * requested and it does not violate the valid set of port
		 * configurations */
		if (pin_cfg & PORT_WRCONFIG_PULLEN) {
    25d8:	69fa      	ldr	r2, [r7, #28]
    25da:	2380      	movs	r3, #128	; 0x80
    25dc:	02db      	lsls	r3, r3, #11
    25de:	4013      	ands	r3, r2
    25e0:	d00a      	beq.n	25f8 <_system_pinmux_config+0xec>
			/* Set the OUT register bits to enable the pull-up if requested,
			 * clear to enable pull-down */
			if (config->input_pull == SYSTEM_PINMUX_PIN_PULL_UP) {
    25e2:	687b      	ldr	r3, [r7, #4]
    25e4:	789b      	ldrb	r3, [r3, #2]
    25e6:	2b01      	cmp	r3, #1
    25e8:	d103      	bne.n	25f2 <_system_pinmux_config+0xe6>
				port->OUTSET.reg = pin_mask;
    25ea:	68fb      	ldr	r3, [r7, #12]
    25ec:	68ba      	ldr	r2, [r7, #8]
    25ee:	619a      	str	r2, [r3, #24]
    25f0:	e002      	b.n	25f8 <_system_pinmux_config+0xec>
			} else {
				port->OUTCLR.reg = pin_mask;
    25f2:	68fb      	ldr	r3, [r7, #12]
    25f4:	68ba      	ldr	r2, [r7, #8]
    25f6:	615a      	str	r2, [r3, #20]
			}
		}

		/* Check if the user has requested that the output buffer be enabled */
		if ((config->direction == SYSTEM_PINMUX_PIN_DIR_OUTPUT) ||
    25f8:	687b      	ldr	r3, [r7, #4]
    25fa:	785b      	ldrb	r3, [r3, #1]
    25fc:	2b01      	cmp	r3, #1
    25fe:	d003      	beq.n	2608 <_system_pinmux_config+0xfc>
				(config->direction == SYSTEM_PINMUX_PIN_DIR_OUTPUT_WITH_READBACK)) {
    2600:	687b      	ldr	r3, [r7, #4]
    2602:	785b      	ldrb	r3, [r3, #1]
				port->OUTCLR.reg = pin_mask;
			}
		}

		/* Check if the user has requested that the output buffer be enabled */
		if ((config->direction == SYSTEM_PINMUX_PIN_DIR_OUTPUT) ||
    2604:	2b02      	cmp	r3, #2
    2606:	d102      	bne.n	260e <_system_pinmux_config+0x102>
				(config->direction == SYSTEM_PINMUX_PIN_DIR_OUTPUT_WITH_READBACK)) {
			/* Set the port DIR bits to enable the output buffer */
			port->DIRSET.reg = pin_mask;
    2608:	68fb      	ldr	r3, [r7, #12]
    260a:	68ba      	ldr	r2, [r7, #8]
    260c:	609a      	str	r2, [r3, #8]
		}
	}
}
    260e:	46c0      	nop			; (mov r8, r8)
    2610:	46bd      	mov	sp, r7
    2612:	b008      	add	sp, #32
    2614:	bd80      	pop	{r7, pc}
    2616:	46c0      	nop			; (mov r8, r8)
    2618:	fffbffff 	.word	0xfffbffff

0000261c <system_pinmux_pin_set_config>:
 * \param[in] config    Configuration settings for the pin
 */
void system_pinmux_pin_set_config(
		const uint8_t gpio_pin,
		const struct system_pinmux_config *const config)
{
    261c:	b580      	push	{r7, lr}
    261e:	b084      	sub	sp, #16
    2620:	af00      	add	r7, sp, #0
    2622:	0002      	movs	r2, r0
    2624:	6039      	str	r1, [r7, #0]
    2626:	1dfb      	adds	r3, r7, #7
    2628:	701a      	strb	r2, [r3, #0]
	PortGroup *const port = system_pinmux_get_group_from_gpio_pin(gpio_pin);
    262a:	1dfb      	adds	r3, r7, #7
    262c:	781b      	ldrb	r3, [r3, #0]
    262e:	0018      	movs	r0, r3
    2630:	4b0a      	ldr	r3, [pc, #40]	; (265c <system_pinmux_pin_set_config+0x40>)
    2632:	4798      	blx	r3
    2634:	0003      	movs	r3, r0
    2636:	60fb      	str	r3, [r7, #12]
	uint32_t pin_mask = (1UL << (gpio_pin % 32));
    2638:	1dfb      	adds	r3, r7, #7
    263a:	781b      	ldrb	r3, [r3, #0]
    263c:	221f      	movs	r2, #31
    263e:	4013      	ands	r3, r2
    2640:	2201      	movs	r2, #1
    2642:	409a      	lsls	r2, r3
    2644:	0013      	movs	r3, r2
    2646:	60bb      	str	r3, [r7, #8]

	_system_pinmux_config(port, pin_mask, config);
    2648:	683a      	ldr	r2, [r7, #0]
    264a:	68b9      	ldr	r1, [r7, #8]
    264c:	68fb      	ldr	r3, [r7, #12]
    264e:	0018      	movs	r0, r3
    2650:	4b03      	ldr	r3, [pc, #12]	; (2660 <system_pinmux_pin_set_config+0x44>)
    2652:	4798      	blx	r3
}
    2654:	46c0      	nop			; (mov r8, r8)
    2656:	46bd      	mov	sp, r7
    2658:	b004      	add	sp, #16
    265a:	bd80      	pop	{r7, pc}
    265c:	000024ad 	.word	0x000024ad
    2660:	0000250d 	.word	0x0000250d

00002664 <system_gclk_chan_get_config_defaults>:
 *
 * \param[out] config  Configuration structure to initialize to default values
 */
static inline void system_gclk_chan_get_config_defaults(
		struct system_gclk_chan_config *const config)
{
    2664:	b580      	push	{r7, lr}
    2666:	b082      	sub	sp, #8
    2668:	af00      	add	r7, sp, #0
    266a:	6078      	str	r0, [r7, #4]
	/* Sanity check arguments */
	Assert(config);

	/* Default configuration values */
	config->source_generator = GCLK_GENERATOR_0;
    266c:	687b      	ldr	r3, [r7, #4]
    266e:	2200      	movs	r2, #0
    2670:	701a      	strb	r2, [r3, #0]
}
    2672:	46c0      	nop			; (mov r8, r8)
    2674:	46bd      	mov	sp, r7
    2676:	b002      	add	sp, #8
    2678:	bd80      	pop	{r7, pc}
    267a:	46c0      	nop			; (mov r8, r8)

0000267c <system_apb_clock_set_mask>:
 * \retval STATUS_OK               The clock mask was set successfully
 */
static inline enum status_code system_apb_clock_set_mask(
		const enum system_clock_apb_bus bus,
		const uint32_t mask)
{
    267c:	b580      	push	{r7, lr}
    267e:	b082      	sub	sp, #8
    2680:	af00      	add	r7, sp, #0
    2682:	0002      	movs	r2, r0
    2684:	6039      	str	r1, [r7, #0]
    2686:	1dfb      	adds	r3, r7, #7
    2688:	701a      	strb	r2, [r3, #0]
	switch (bus) {
    268a:	1dfb      	adds	r3, r7, #7
    268c:	781b      	ldrb	r3, [r3, #0]
    268e:	2b01      	cmp	r3, #1
    2690:	d00a      	beq.n	26a8 <system_apb_clock_set_mask+0x2c>
    2692:	2b02      	cmp	r3, #2
    2694:	d00f      	beq.n	26b6 <system_apb_clock_set_mask+0x3a>
    2696:	2b00      	cmp	r3, #0
    2698:	d114      	bne.n	26c4 <system_apb_clock_set_mask+0x48>
		case SYSTEM_CLOCK_APB_APBA:
			PM->APBAMASK.reg |= mask;
    269a:	4b0e      	ldr	r3, [pc, #56]	; (26d4 <system_apb_clock_set_mask+0x58>)
    269c:	4a0d      	ldr	r2, [pc, #52]	; (26d4 <system_apb_clock_set_mask+0x58>)
    269e:	6991      	ldr	r1, [r2, #24]
    26a0:	683a      	ldr	r2, [r7, #0]
    26a2:	430a      	orrs	r2, r1
    26a4:	619a      	str	r2, [r3, #24]
			break;
    26a6:	e00f      	b.n	26c8 <system_apb_clock_set_mask+0x4c>

		case SYSTEM_CLOCK_APB_APBB:
			PM->APBBMASK.reg |= mask;
    26a8:	4b0a      	ldr	r3, [pc, #40]	; (26d4 <system_apb_clock_set_mask+0x58>)
    26aa:	4a0a      	ldr	r2, [pc, #40]	; (26d4 <system_apb_clock_set_mask+0x58>)
    26ac:	69d1      	ldr	r1, [r2, #28]
    26ae:	683a      	ldr	r2, [r7, #0]
    26b0:	430a      	orrs	r2, r1
    26b2:	61da      	str	r2, [r3, #28]
			break;
    26b4:	e008      	b.n	26c8 <system_apb_clock_set_mask+0x4c>

		case SYSTEM_CLOCK_APB_APBC:
			PM->APBCMASK.reg |= mask;
    26b6:	4b07      	ldr	r3, [pc, #28]	; (26d4 <system_apb_clock_set_mask+0x58>)
    26b8:	4a06      	ldr	r2, [pc, #24]	; (26d4 <system_apb_clock_set_mask+0x58>)
    26ba:	6a11      	ldr	r1, [r2, #32]
    26bc:	683a      	ldr	r2, [r7, #0]
    26be:	430a      	orrs	r2, r1
    26c0:	621a      	str	r2, [r3, #32]
			break;
    26c2:	e001      	b.n	26c8 <system_apb_clock_set_mask+0x4c>

		default:
			Assert(false);
			return STATUS_ERR_INVALID_ARG;
    26c4:	2317      	movs	r3, #23
    26c6:	e000      	b.n	26ca <system_apb_clock_set_mask+0x4e>

	}

	return STATUS_OK;
    26c8:	2300      	movs	r3, #0
}
    26ca:	0018      	movs	r0, r3
    26cc:	46bd      	mov	sp, r7
    26ce:	b002      	add	sp, #8
    26d0:	bd80      	pop	{r7, pc}
    26d2:	46c0      	nop			; (mov r8, r8)
    26d4:	40000400 	.word	0x40000400

000026d8 <system_pinmux_get_config_defaults>:
 *
 * \param[out] config  Configuration structure to initialize to default values
 */
static inline void system_pinmux_get_config_defaults(
		struct system_pinmux_config *const config)
{
    26d8:	b580      	push	{r7, lr}
    26da:	b082      	sub	sp, #8
    26dc:	af00      	add	r7, sp, #0
    26de:	6078      	str	r0, [r7, #4]
	/* Sanity check arguments */
	Assert(config);

	/* Default configuration values */
	config->mux_position = SYSTEM_PINMUX_GPIO;
    26e0:	687b      	ldr	r3, [r7, #4]
    26e2:	2280      	movs	r2, #128	; 0x80
    26e4:	701a      	strb	r2, [r3, #0]
	config->direction    = SYSTEM_PINMUX_PIN_DIR_INPUT;
    26e6:	687b      	ldr	r3, [r7, #4]
    26e8:	2200      	movs	r2, #0
    26ea:	705a      	strb	r2, [r3, #1]
	config->input_pull   = SYSTEM_PINMUX_PIN_PULL_UP;
    26ec:	687b      	ldr	r3, [r7, #4]
    26ee:	2201      	movs	r2, #1
    26f0:	709a      	strb	r2, [r3, #2]
	config->powersave    = false;
    26f2:	687b      	ldr	r3, [r7, #4]
    26f4:	2200      	movs	r2, #0
    26f6:	70da      	strb	r2, [r3, #3]
}
    26f8:	46c0      	nop			; (mov r8, r8)
    26fa:	46bd      	mov	sp, r7
    26fc:	b002      	add	sp, #8
    26fe:	bd80      	pop	{r7, pc}

00002700 <system_is_debugger_present>:
 * \retval true  Debugger is connected to the system
 * \retval false Debugger is not connected to the system
 *
 */
static inline bool system_is_debugger_present(void)
{
    2700:	b580      	push	{r7, lr}
    2702:	af00      	add	r7, sp, #0
	return DSU->STATUSB.reg & DSU_STATUSB_DBGPRES;
    2704:	4b05      	ldr	r3, [pc, #20]	; (271c <system_is_debugger_present+0x1c>)
    2706:	789b      	ldrb	r3, [r3, #2]
    2708:	b2db      	uxtb	r3, r3
    270a:	001a      	movs	r2, r3
    270c:	2302      	movs	r3, #2
    270e:	4013      	ands	r3, r2
    2710:	1e5a      	subs	r2, r3, #1
    2712:	4193      	sbcs	r3, r2
    2714:	b2db      	uxtb	r3, r3
}
    2716:	0018      	movs	r0, r3
    2718:	46bd      	mov	sp, r7
    271a:	bd80      	pop	{r7, pc}
    271c:	41002000 	.word	0x41002000

00002720 <i2c_master_is_syncing>:
 * \retval true   Module is busy synchronizing
 * \retval false  Module is not synchronizing
 */
static inline bool i2c_master_is_syncing (
		const struct i2c_master_module *const module)
{
    2720:	b580      	push	{r7, lr}
    2722:	b084      	sub	sp, #16
    2724:	af00      	add	r7, sp, #0
    2726:	6078      	str	r0, [r7, #4]
	/* Sanity check */
	Assert(module);
	Assert(module->hw);

	SercomI2cm *const i2c_hw = &(module->hw->I2CM);
    2728:	687b      	ldr	r3, [r7, #4]
    272a:	681b      	ldr	r3, [r3, #0]
    272c:	60fb      	str	r3, [r7, #12]

#if defined(FEATURE_SERCOM_SYNCBUSY_SCHEME_VERSION_1)
	return (i2c_hw->STATUS.reg & SERCOM_I2CM_STATUS_SYNCBUSY);
#elif defined(FEATURE_SERCOM_SYNCBUSY_SCHEME_VERSION_2)
	return (i2c_hw->SYNCBUSY.reg & SERCOM_I2CM_SYNCBUSY_MASK);
    272e:	68fb      	ldr	r3, [r7, #12]
    2730:	69db      	ldr	r3, [r3, #28]
    2732:	2207      	movs	r2, #7
    2734:	4013      	ands	r3, r2
    2736:	1e5a      	subs	r2, r3, #1
    2738:	4193      	sbcs	r3, r2
    273a:	b2db      	uxtb	r3, r3
#else
#  error Unknown SERCOM SYNCBUSY scheme!
#endif
}
    273c:	0018      	movs	r0, r3
    273e:	46bd      	mov	sp, r7
    2740:	b004      	add	sp, #16
    2742:	bd80      	pop	{r7, pc}

00002744 <_i2c_master_wait_for_sync>:
 *
 * \param[in]  module  Pointer to software module structure
 */
static void _i2c_master_wait_for_sync(
		const struct i2c_master_module *const module)
{
    2744:	b580      	push	{r7, lr}
    2746:	b082      	sub	sp, #8
    2748:	af00      	add	r7, sp, #0
    274a:	6078      	str	r0, [r7, #4]
	/* Sanity check */
	Assert(module);

	while (i2c_master_is_syncing(module)) {
    274c:	46c0      	nop			; (mov r8, r8)
    274e:	687b      	ldr	r3, [r7, #4]
    2750:	0018      	movs	r0, r3
    2752:	4b04      	ldr	r3, [pc, #16]	; (2764 <_i2c_master_wait_for_sync+0x20>)
    2754:	4798      	blx	r3
    2756:	1e03      	subs	r3, r0, #0
    2758:	d1f9      	bne.n	274e <_i2c_master_wait_for_sync+0xa>
		/* Wait for I2C module to sync. */
	}
}
    275a:	46c0      	nop			; (mov r8, r8)
    275c:	46bd      	mov	sp, r7
    275e:	b002      	add	sp, #8
    2760:	bd80      	pop	{r7, pc}
    2762:	46c0      	nop			; (mov r8, r8)
    2764:	00002721 	.word	0x00002721

00002768 <_i2c_master_set_config>:
 *                                          with set GCLK frequency
 */
static enum status_code _i2c_master_set_config(
		struct i2c_master_module *const module,
		const struct i2c_master_config *const config)
{
    2768:	b5f0      	push	{r4, r5, r6, r7, lr}
    276a:	b095      	sub	sp, #84	; 0x54
    276c:	af00      	add	r7, sp, #0
    276e:	60f8      	str	r0, [r7, #12]
    2770:	60b9      	str	r1, [r7, #8]
	Assert(module->hw);
	Assert(config);

	/* Temporary variables. */
	uint32_t tmp_ctrla;
	int32_t tmp_baud = 0;
    2772:	2300      	movs	r3, #0
    2774:	637b      	str	r3, [r7, #52]	; 0x34
	int32_t tmp_baud_hs = 0;
    2776:	2300      	movs	r3, #0
    2778:	64bb      	str	r3, [r7, #72]	; 0x48
	int32_t tmp_baudlow_hs = 0;
    277a:	2300      	movs	r3, #0
    277c:	647b      	str	r3, [r7, #68]	; 0x44
	enum status_code tmp_status_code = STATUS_OK;
    277e:	233b      	movs	r3, #59	; 0x3b
    2780:	2208      	movs	r2, #8
    2782:	4694      	mov	ip, r2
    2784:	44bc      	add	ip, r7
    2786:	4463      	add	r3, ip
    2788:	2200      	movs	r2, #0
    278a:	701a      	strb	r2, [r3, #0]

	SercomI2cm *const i2c_module = &(module->hw->I2CM);
    278c:	68fb      	ldr	r3, [r7, #12]
    278e:	681b      	ldr	r3, [r3, #0]
    2790:	633b      	str	r3, [r7, #48]	; 0x30
	Sercom *const sercom_hw = module->hw;
    2792:	68fb      	ldr	r3, [r7, #12]
    2794:	681b      	ldr	r3, [r3, #0]
    2796:	62fb      	str	r3, [r7, #44]	; 0x2c

	uint8_t sercom_index = _sercom_get_sercom_inst_index(sercom_hw);
    2798:	2323      	movs	r3, #35	; 0x23
    279a:	2208      	movs	r2, #8
    279c:	18ba      	adds	r2, r7, r2
    279e:	18d4      	adds	r4, r2, r3
    27a0:	6afb      	ldr	r3, [r7, #44]	; 0x2c
    27a2:	0018      	movs	r0, r3
    27a4:	4bdb      	ldr	r3, [pc, #876]	; (2b14 <_i2c_master_set_config+0x3ac>)
    27a6:	4798      	blx	r3
    27a8:	0003      	movs	r3, r0
    27aa:	7023      	strb	r3, [r4, #0]

	/* Pin configuration */
	struct system_pinmux_config pin_conf;
	system_pinmux_get_config_defaults(&pin_conf);
    27ac:	230c      	movs	r3, #12
    27ae:	2208      	movs	r2, #8
    27b0:	4694      	mov	ip, r2
    27b2:	44bc      	add	ip, r7
    27b4:	4463      	add	r3, ip
    27b6:	0018      	movs	r0, r3
    27b8:	4bd7      	ldr	r3, [pc, #860]	; (2b18 <_i2c_master_set_config+0x3b0>)
    27ba:	4798      	blx	r3

	uint32_t pad0 = config->pinmux_pad0;
    27bc:	68bb      	ldr	r3, [r7, #8]
    27be:	69db      	ldr	r3, [r3, #28]
    27c0:	63fb      	str	r3, [r7, #60]	; 0x3c
	uint32_t pad1 = config->pinmux_pad1;
    27c2:	68bb      	ldr	r3, [r7, #8]
    27c4:	6a1b      	ldr	r3, [r3, #32]
    27c6:	63bb      	str	r3, [r7, #56]	; 0x38

	/* SERCOM PAD0 - SDA */
	if (pad0 == PINMUX_DEFAULT) {
    27c8:	6bfb      	ldr	r3, [r7, #60]	; 0x3c
    27ca:	2b00      	cmp	r3, #0
    27cc:	d106      	bne.n	27dc <_i2c_master_set_config+0x74>
		pad0 = _sercom_get_default_pad(sercom_hw, 0);
    27ce:	6afb      	ldr	r3, [r7, #44]	; 0x2c
    27d0:	2100      	movs	r1, #0
    27d2:	0018      	movs	r0, r3
    27d4:	4bd1      	ldr	r3, [pc, #836]	; (2b1c <_i2c_master_set_config+0x3b4>)
    27d6:	4798      	blx	r3
    27d8:	0003      	movs	r3, r0
    27da:	63fb      	str	r3, [r7, #60]	; 0x3c
	}
	pin_conf.mux_position = pad0 & 0xFFFF;
    27dc:	6bfb      	ldr	r3, [r7, #60]	; 0x3c
    27de:	b2da      	uxtb	r2, r3
    27e0:	230c      	movs	r3, #12
    27e2:	2108      	movs	r1, #8
    27e4:	468c      	mov	ip, r1
    27e6:	44bc      	add	ip, r7
    27e8:	4463      	add	r3, ip
    27ea:	701a      	strb	r2, [r3, #0]
	pin_conf.direction    = SYSTEM_PINMUX_PIN_DIR_OUTPUT_WITH_READBACK;
    27ec:	230c      	movs	r3, #12
    27ee:	2208      	movs	r2, #8
    27f0:	4694      	mov	ip, r2
    27f2:	44bc      	add	ip, r7
    27f4:	4463      	add	r3, ip
    27f6:	2202      	movs	r2, #2
    27f8:	705a      	strb	r2, [r3, #1]
	system_pinmux_pin_set_config(pad0 >> 16, &pin_conf);
    27fa:	6bfb      	ldr	r3, [r7, #60]	; 0x3c
    27fc:	0c1b      	lsrs	r3, r3, #16
    27fe:	b2db      	uxtb	r3, r3
    2800:	220c      	movs	r2, #12
    2802:	2108      	movs	r1, #8
    2804:	468c      	mov	ip, r1
    2806:	44bc      	add	ip, r7
    2808:	4462      	add	r2, ip
    280a:	0011      	movs	r1, r2
    280c:	0018      	movs	r0, r3
    280e:	4bc4      	ldr	r3, [pc, #784]	; (2b20 <_i2c_master_set_config+0x3b8>)
    2810:	4798      	blx	r3

	/* SERCOM PAD1 - SCL */
	if (pad1 == PINMUX_DEFAULT) {
    2812:	6bbb      	ldr	r3, [r7, #56]	; 0x38
    2814:	2b00      	cmp	r3, #0
    2816:	d106      	bne.n	2826 <_i2c_master_set_config+0xbe>
		pad1 = _sercom_get_default_pad(sercom_hw, 1);
    2818:	6afb      	ldr	r3, [r7, #44]	; 0x2c
    281a:	2101      	movs	r1, #1
    281c:	0018      	movs	r0, r3
    281e:	4bbf      	ldr	r3, [pc, #764]	; (2b1c <_i2c_master_set_config+0x3b4>)
    2820:	4798      	blx	r3
    2822:	0003      	movs	r3, r0
    2824:	63bb      	str	r3, [r7, #56]	; 0x38
	}
	pin_conf.mux_position = pad1 & 0xFFFF;
    2826:	6bbb      	ldr	r3, [r7, #56]	; 0x38
    2828:	b2da      	uxtb	r2, r3
    282a:	230c      	movs	r3, #12
    282c:	2108      	movs	r1, #8
    282e:	468c      	mov	ip, r1
    2830:	44bc      	add	ip, r7
    2832:	4463      	add	r3, ip
    2834:	701a      	strb	r2, [r3, #0]
	pin_conf.direction    = SYSTEM_PINMUX_PIN_DIR_OUTPUT_WITH_READBACK;
    2836:	230c      	movs	r3, #12
    2838:	2208      	movs	r2, #8
    283a:	4694      	mov	ip, r2
    283c:	44bc      	add	ip, r7
    283e:	4463      	add	r3, ip
    2840:	2202      	movs	r2, #2
    2842:	705a      	strb	r2, [r3, #1]
	system_pinmux_pin_set_config(pad1 >> 16, &pin_conf);
    2844:	6bbb      	ldr	r3, [r7, #56]	; 0x38
    2846:	0c1b      	lsrs	r3, r3, #16
    2848:	b2db      	uxtb	r3, r3
    284a:	220c      	movs	r2, #12
    284c:	2108      	movs	r1, #8
    284e:	468c      	mov	ip, r1
    2850:	44bc      	add	ip, r7
    2852:	4462      	add	r2, ip
    2854:	0011      	movs	r1, r2
    2856:	0018      	movs	r0, r3
    2858:	4bb1      	ldr	r3, [pc, #708]	; (2b20 <_i2c_master_set_config+0x3b8>)
    285a:	4798      	blx	r3

	/* Save timeout on unknown bus state in software module. */
	module->unknown_bus_state_timeout = config->unknown_bus_state_timeout;
    285c:	68bb      	ldr	r3, [r7, #8]
    285e:	8a9a      	ldrh	r2, [r3, #20]
    2860:	68fb      	ldr	r3, [r7, #12]
    2862:	80da      	strh	r2, [r3, #6]

	/* Save timeout on buffer write. */
	module->buffer_timeout = config->buffer_timeout;
    2864:	68bb      	ldr	r3, [r7, #8]
